ccopy_reg
_reconstructor
p0
(cmatplotlib.axes._subplots
_PicklableSubplotClassConstructor
p1
c__builtin__
object
p2
Ntp3
Rp4
(cmatplotlib.axes._axes
Axes
p5
tp6
Rp7
(dp8
S'transLimits'
p9
g0
(cmatplotlib.transforms
BboxTransformFrom
p10
g2
Ntp11
Rp12
(dp13
S'_invalid'
p14
I2
sS'_boxin'
p15
g0
(cmatplotlib.transforms
TransformedBbox
p16
g2
Ntp17
Rp18
(dp19
g14
I2
sS'_bbox'
p20
g0
(cmatplotlib.transforms
Bbox
p21
g2
Ntp22
Rp23
(dp24
g14
I2
sS'_minpos'
p25
cnumpy.core.multiarray
_reconstruct
p26
(cnumpy
ndarray
p27
(I0
tp28
S'b'
p29
tp30
Rp31
(I1
(I2
tp32
cnumpy
dtype
p33
(S'f8'
p34
I0
I1
tp35
Rp36
(I3
S'<'
p37
NNNI-1
I-1
I0
tp38
bI00
S'\x00\x00\x00\x00\x00\x00\xf0\x7f\x00\x00\x00\x00\x00\x00\xf0\x7f'
p39
tp40
bsS'_parents'
p41
(dp42
I140282888334992
g18
ssS'_points_orig'
p43
g26
(g27
(I0
tp44
g29
tp45
Rp46
(I1
(I2
I2
tp47
g36
I00
S'\x00\x00\x00\x00\x00\x00\x00\x00\x00\x00\x00\x00\x00\x00\x00\x00\x00\x00\x00\x00\x00\x00\xf0?\x00\x00\x00\x00\x00\x00\xf0?'
p48
tp49
bsS'_points'
p50
g26
(g27
(I0
tp51
g29
tp52
Rp53
(I1
(I2
I2
tp54
g36
I00
S'\x00\x00\x00\x00\x00\x00\x00\x00\x00\x00\x00\x00\x00\x00\x00\x00\x00\x00\x00\x00\x00\xc0r@\x00\x00\x00\x00\x00\x00i@'
p55
tp56
bsS'_ignore'
p57
I01
sS'_shorthand_name'
p58
V
p59
sbsS'_transform'
p60
g0
(cmatplotlib.transforms
TransformWrapper
p61
g2
Ntp62
Rp63
(dp64
Voutput_dims
p65
I2
sVparents
p66
(dp67
I140282827570192
NsI140282888388880
g0
(cmatplotlib.transforms
CompositeGenericTransform
p68
g2
Ntp69
Rp70
(dp71
g14
I2
sS'input_dims'
p72
I2
sS'_a'
p73
g63
sS'output_dims'
p74
I2
sS'_b'
p75
g0
(g68
g2
Ntp76
Rp77
(dp78
g14
I2
sg72
I2
sg73
g12
sg74
I2
sg75
g0
(cmatplotlib.transforms
BboxTransformTo
p79
g2
Ntp80
Rp81
(dp82
g14
I1
sS'_mtx'
p83
NsS'_inverted'
p84
NsS'_boxout'
p85
g0
(g16
g2
Ntp86
Rp87
(dp88
g14
I1
sg20
g0
(g21
g2
Ntp89
Rp90
(dp91
g14
I0
sg25
g26
(g27
(I0
tp92
g29
tp93
Rp94
(I1
(I2
tp95
g36
I00
S'\x00\x00\x00\x00\x00\x00\xf0\x7f\x00\x00\x00\x00\x00\x00\xf0\x7f'
p96
tp97
bsg41
(dp98
I140282888335248
g87
ssg43
g26
(g27
(I0
tp99
g29
tp100
Rp101
(I1
(I2
I2
tp102
g36
I00
S'\x00\x00\x00\x00\x00\x00\xc0?(\\\x8f\xc2\xf5(\xbc?\xcd\xcc\xcc\xcc\xcc\xcc\xec?)\\\x8f\xc2\xf5(\xec?'
p103
tp104
bsg50
g26
(g27
(I0
tp105
g29
tp106
Rp107
(I1
(I2
I2
tp108
g36
I00
S'\x00\x00\x00\x00\x00\x00\xc0?(\\\x8f\xc2\xf5(\xbc?\xcd\xcc\xcc\xcc\xcc\xcc\xec?)\\\x8f\xc2\xf5(\xec?'
p109
tp110
bsg57
I01
sg58
g59
sbsg60
g0
(g79
g2
Ntp111
Rp112
(dp113
g14
I1
sg83
Nsg84
Nsg85
g0
(g16
g2
Ntp114
Rp115
(dp116
g14
I0
sg20
g0
(g21
g2
Ntp117
Rp118
(dp119
g14
I0
sg25
g26
(g27
(I0
tp120
g29
tp121
Rp122
(I1
(I2
tp123
g36
I00
S'\x00\x00\x00\x00\x00\x00\xf0\x7f\x00\x00\x00\x00\x00\x00\xf0\x7f'
p124
tp125
bsg41
(dp126
I140282912466320
g115
ssg43
g26
(g27
(I0
tp127
g29
tp128
Rp129
(I1
(I2
I2
tp130
g36
I00
S'\x00\x00\x00\x00\x00\x00\x00\x00\x00\x00\x00\x00\x00\x00\x00\x00\x9a\x99\x99\x99\x99\x99\x19@333333\x13@'
p131
tp132
bsg50
g26
(g27
(I0
tp133
g29
tp134
Rp135
(I1
(I2
I2
tp136
g36
I00
S'\x00\x00\x00\x00\x00\x00\x00\x00\x00\x00\x00\x00\x00\x00\x00\x00\x9a\x99\x99\x99\x99\x99\x19@333333\x13@'
p137
tp138
bsg57
I01
sg58
g59
sbsg60
g0
(cmatplotlib.transforms
Affine2D
p139
g2
Ntp140
Rp141
(dp142
g14
I0
sg84
Nsg83
g26
(g27
(I0
tp143
g29
tp144
Rp145
(I1
(I3
I3
tp146
g36
I00
S'\x00\x00\x00\x00\x00\x00Y@\x00\x00\x00\x00\x00\x00\x00\x00\x00\x00\x00\x00\x00\x00\x00\x00\x00\x00\x00\x00\x00\x00\x00\x00\x00\x00\x00\x00\x00\x00Y@\x00\x00\x00\x00\x00\x00\x00\x00\x00\x00\x00\x00\x00\x00\x00\x00\x00\x00\x00\x00\x00\x00\x00\x00\x00\x00\x00\x00\x00\x00\xf0?'
p147
tp148
bsg58
g59
sg41
(dp149
I140282827411280
g0
(cmatplotlib.transforms
ScaledTranslation
p150
g2
Ntp151
Rp152
(dp153
g14
I1
sg83
NsS'_scale_trans'
p154
g141
sg84
NsS'_t'
p155
(I0
F-0.07500000000000001
tp156
sg58
g59
sg41
(dp157
I140282827411344
g0
(g68
g2
Ntp158
Rp159
(dp160
g14
I1
sg72
I2
sg73
g0
(cmatplotlib.transforms
BlendedGenericTransform
p161
g2
Ntp162
Rp163
(dp164
g14
I2
sS'_y'
p165
g81
sS'_x'
p166
g70
sS'_affine'
p167
Nsg41
(dp168
I140282888481680
g0
(g68
g2
Ntp169
Rp170
(dp171
g14
I1
sg72
I2
sg73
g163
sg74
I2
sg75
g0
(g150
g2
Ntp172
Rp173
(dp174
g14
I1
sg83
Nsg154
g141
sg84
Nsg155
(I0
F0.09722222222222222
tp175
sg58
g59
sg41
(dp176
I140282888481680
g170
ssbsg41
(dp177
sg58
g59
sbsI140282827411344
g159
sI140282827473104
g0
(g68
g2
Ntp178
Rp179
(dp180
g14
I1
sg72
I2
sg73
g163
sg74
I2
sg75
g0
(g150
g2
Ntp181
Rp182
(dp183
g14
I1
sg83
Nsg154
g141
sg84
Nsg155
(I0
F0.07500000000000001
tp184
sg58
g59
sg41
(dp185
I140282827473104
g179
ssbsg41
(dp186
sg58
g59
sbsI140282888480464
g0
(g68
g2
Ntp187
Rp188
(dp189
g14
I1
sg72
I2
sg73
g163
sg74
I2
sg75
g0
(g150
g2
Ntp190
Rp191
(dp192
g14
I1
sg83
Nsg154
g141
sg84
Nsg155
(I0
F0.09722222222222222
tp193
sg58
g59
sg41
(dp194
I140282888480464
g188
ssbsg41
(dp195
sg58
g59
sbsI140282888480208
g0
(g68
g2
Ntp196
Rp197
(dp198
g14
I1
sg72
I2
sg73
g163
sg74
I2
sg75
g0
(g150
g2
Ntp199
Rp200
(dp201
g14
I1
sg83
Nsg154
g141
sg84
Nsg155
(I0
F-0.09722222222222222
tp202
sg58
g59
sg41
(dp203
I140282888480208
g197
ssbsg41
(dp204
sg58
g59
sbsI140282888481424
g0
(g68
g2
Ntp205
Rp206
(dp207
g14
I1
sg72
I2
sg73
g163
sg74
I2
sg75
g0
(g150
g2
Ntp208
Rp209
(dp210
g14
I1
sg83
Nsg154
g141
sg84
Nsg155
(I0
F-0.09722222222222222
tp211
sg58
g59
sg41
(dp212
I140282888481424
g206
ssbsg41
(dp213
sg58
g59
sbssg58
g59
sbsg74
I2
sg75
g152
sg41
(dp214
sg58
g59
sbssbsI140282888480144
g200
sI140282888482768
g0
(g150
g2
Ntp215
Rp216
(dp217
g14
I1
sg83
Nsg154
g141
sg84
Nsg155
(F-0.09722222222222222
I0
tp218
sg58
g59
sg41
(dp219
I140282827407440
g0
(g68
g2
Ntp220
Rp221
(dp222
g14
I1
sg72
I2
sg73
g0
(g161
g2
Ntp223
Rp224
(dp225
g14
I2
sg165
g70
sg166
g81
sg167
Nsg41
(dp226
I140282827407440
g221
sI140282827407696
g0
(g68
g2
Ntp227
Rp228
(dp229
g14
I1
sg72
I2
sg73
g224
sg74
I2
sg75
g0
(g150
g2
Ntp230
Rp231
(dp232
g14
I1
sg83
Nsg154
g141
sg84
Nsg155
(F0.09722222222222222
I0
tp233
sg58
g59
sg41
(dp234
I140282827407696
g228
ssbsg41
(dp235
sg58
g59
sbsI140282827408784
g0
(g68
g2
Ntp236
Rp237
(dp238
g14
I1
sg72
I2
sg73
g224
sg74
I2
sg75
g0
(g150
g2
Ntp239
Rp240
(dp241
g14
I1
sg83
Nsg154
g141
sg84
Nsg155
(F-0.09722222222222222
I0
tp242
sg58
g59
sg41
(dp243
I140282827408784
g237
ssbsg41
(dp244
sg58
g59
sbsI140282827518544
g0
(g68
g2
Ntp245
Rp246
(dp247
g14
I1
sg72
I2
sg73
g224
sg74
I2
sg75
g0
(g150
g2
Ntp248
Rp249
(dp250
g14
I1
sg83
Nsg154
g141
sg84
Nsg155
(F0.07500000000000001
I0
tp251
sg58
g59
sg41
(dp252
I140282827518544
g246
ssbsg41
(dp253
sg58
g59
sbsI140282827409040
g0
(g68
g2
Ntp254
Rp255
(dp256
g14
I1
sg72
I2
sg73
g224
sg74
I2
sg75
g0
(g150
g2
Ntp257
Rp258
(dp259
g14
I1
sg83
Nsg154
g141
sg84
Nsg155
(F0.09722222222222222
I0
tp260
sg58
g59
sg41
(dp261
I140282827409040
g255
ssbsg41
(dp262
sg58
g59
sbsI140282827518288
g0
(g68
g2
Ntp263
Rp264
(dp265
g14
I1
sg72
I2
sg73
g224
sg74
I2
sg75
g0
(g150
g2
Ntp266
Rp267
(dp268
g14
I1
sg83
Nsg154
g141
sg84
Nsg155
(F-0.07500000000000001
I0
tp269
sg58
g59
sg41
(dp270
I140282827518288
g264
ssbsg41
(dp271
sg58
g59
sbssg58
g59
sbsg74
I2
sg75
g216
sg41
(dp272
sg58
g59
sbssbsI140282827407632
g231
sI140282827473040
g182
sI140282827408720
g240
sI140282827409680
g0
(g150
g2
Ntp273
Rp274
(dp275
g14
I1
sg83
Nsg154
g141
sg84
Nsg155
(F0.0
F0.08333333333333333
tp276
sg58
g59
sg41
(dp277
I140282827409808
g0
(g68
g2
Ntp278
Rp279
(dp280
g14
I1
sg72
I2
sg73
g81
sg74
I2
sg75
g274
sg41
(dp281
sg58
g59
sbsI140282827409872
g0
(g68
g2
Ntp282
Rp283
(dp284
g14
I1
sg72
I2
sg73
g81
sg74
I2
sg75
g274
sg41
(dp285
sg58
g59
sbsI140282827409936
g0
(g68
g2
Ntp286
Rp287
(dp288
g14
I1
sg72
I2
sg73
g81
sg74
I2
sg75
g274
sg41
(dp289
sg58
g59
sbssbsI140282888481616
g173
sI140282912466320
g115
sI140282827518224
g267
sI140282888481360
g209
sI140282827518480
g249
sI140282827408976
g258
sI140282888480400
g191
ssbsg50
g26
(g27
(I0
tp290
g29
tp291
Rp292
(I1
(I2
I2
tp293
g36
I00
S'\x00\x00\x00\x00\x00\x00\x00\x00\x00\x00\x00\x00\x00\x00\x00\x00\x00\x00\x00\x00\x00\x00\x84@\x00\x00\x00\x00\x00\x00~@'
p294
tp295
bsg41
(dp296
I140282912465744
g112
ssg58
g59
sbsg41
(dp297
I140282888335248
g87
ssg58
g59
sbsg50
Nsg41
(dp298
I140282888334928
g81
ssg58
g59
sbsg41
(dp299
I140282827473744
g0
(g68
g2
Ntp300
Rp301
(dp302
g14
I1
sg72
I2
sg73
g0
(g68
g2
Ntp303
Rp304
(dp305
g14
I1
sg72
I2
sg73
g0
(g79
g2
Ntp306
Rp307
(dp308
g14
I1
sg83
Nsg84
Nsg85
g0
(g21
g2
Ntp309
Rp310
(dp311
g14
I1
sg25
g26
(g27
(I0
tp312
g29
tp313
Rp314
(I1
(I2
tp315
g36
I00
S'\x00\x00\x00\x00\x00\x00\xf0\x7f\x00\x00\x00\x00\x00\x00\xf0\x7f'
p316
tp317
bsg41
(dp318
I140282827473616
g307
ssg43
g26
(g27
(I0
tp319
g29
tp320
Rp321
(I1
(I2
I2
tp322
g36
I00
S'\x00\x00\x00\x00\x00\x00\x00\x00\x00\x00\x00\x00\x00\x00\x00\x00\x00\x00\x00\x00\x00\x00\xf0?\x00\x00\x00\x00\x00\x00\xf0?'
p323
tp324
bsg50
g26
(g27
(I0
tp325
g29
tp326
Rp327
(I1
(I2
I2
tp328
g36
I00
S'\x00\x00\x00\x00\x00\x00\x00\x00\x00\x00\x00\x00\x00\x00\x00\x00\x00\x00\x00\x00\x00\x00\xf0?\x00\x00\x00\x00\x00\x00\xf0?'
p329
tp330
bsg57
I01
sg58
g59
sbsg41
(dp331
I140282827473680
g304
ssg58
g59
sbsg74
I2
sg75
g0
(g139
g2
Ntp332
Rp333
(dp334
g14
I2
sg84
Nsg83
g26
(g27
(I0
tp335
g29
tp336
Rp337
(I1
(I3
I3
tp338
g36
I00
S'\x00\x00\x00\x00\x00\x00\xf0?\x00\x00\x00\x00\x00\x00\x00\x00\x00\x00\x00\x00\x00\x00\x00\x00\x00\x00\x00\x00\x00\x00\x00\x00\x00\x00\x00\x00\x00\x00\xf0?\x00\x00\x00\x00\x00\x00\x00\x00\x00\x00\x00\x00\x00\x00\x00\x00\x00\x00\x00\x00\x00\x00\x00\x00\x00\x00\x00\x00\x00\x00\xf0?'
p339
tp340
bsg58
g59
sg41
(dp341
I140282827473680
g304
ssbsg41
(dp342
I140282827473744
g301
ssg58
g59
sbsg74
I2
sg75
g81
sg41
(dp343
I140282827473808
g0
(g16
g2
Ntp344
Rp345
(dp346
g14
I1
sg20
g0
(g21
g2
Ntp347
Rp348
(dp349
g14
I1
sg25
g26
(g27
(I0
tp350
g29
tp351
Rp352
(I1
(I2
tp353
g36
I00
S'\x00\x00\x00\x00\x00\x00\xf0\x7f\x00\x00\x00\x00\x00\x00\xf0\x7f'
p354
tp355
bsg41
(dp356
I140282827473808
g345
ssg43
g26
(g27
(I0
tp357
g29
tp358
Rp359
(I1
(I2
I2
tp360
g36
I00
S'\x00\x00\x00\x00\x00\x00\x00\x00\x00\x00\x00\x00\x00\x00\x00\x00\x00\x00\x00\x00\x00\x00\xf0?\x00\x00\x00\x00\x00\x00\xf0?'
p361
tp362
bsg50
g26
(g27
(I0
tp363
g29
tp364
Rp365
(I1
(I2
I2
tp366
g36
I00
S'\x00\x00\x00\x00\x00\x00\x00\x00\x00\x00\x00\x00\x00\x00\x00\x00\x00\x00\x00\x00\x00\x00\xf0?\x00\x00\x00\x00\x00\x00\xf0?'
p367
tp368
bsg57
I01
sg58
g59
sbsg60
g301
sg50
Nsg41
(dp369
sg58
g59
sbssg58
g59
sbsI140283238486928
g77
sI140282827474640
g0
(g68
g2
Ntp370
Rp371
(dp372
g14
I1
sg72
I2
sg73
g0
(g68
g2
Ntp373
Rp374
(dp375
g14
I1
sg72
I2
sg73
g0
(g79
g2
Ntp376
Rp377
(dp378
g14
I1
sg83
Nsg84
Nsg85
g0
(g21
g2
Ntp379
Rp380
(dp381
g14
I1
sg25
g26
(g27
(I0
tp382
g29
tp383
Rp384
(I1
(I2
tp385
g36
I00
S'\x00\x00\x00\x00\x00\x00\xf0\x7f\x00\x00\x00\x00\x00\x00\xf0\x7f'
p386
tp387
bsg41
(dp388
I140282827474512
g377
ssg43
g26
(g27
(I0
tp389
g29
tp390
Rp391
(I1
(I2
I2
tp392
g36
I00
S'\x00\x00\x00\x00\x00\x00\x00\x00\x00\x00\x00\x00\x00\x00\x00\x00\x00\x00\x00\x00\x00\x00\xf0?\x00\x00\x00\x00\x00\x00\xf0?'
p393
tp394
bsg50
g26
(g27
(I0
tp395
g29
tp396
Rp397
(I1
(I2
I2
tp398
g36
I00
S'\x00\x00\x00\x00\x00\x00\x00\x00\x00\x00\x00\x00\x00\x00\x00\x00\x00\x00\x00\x00\x00\x00\xf0?\x00\x00\x00\x00\x00\x00\xf0?'
p399
tp400
bsg57
I01
sg58
g59
sbsg41
(dp401
I140282827474576
g374
ssg58
g59
sbsg74
I2
sg75
g0
(g139
g2
Ntp402
Rp403
(dp404
g14
I2
sg84
Nsg83
g26
(g27
(I0
tp405
g29
tp406
Rp407
(I1
(I3
I3
tp408
g36
I00
S'\x00\x00\x00\x00\x00\x00\xf0?\x00\x00\x00\x00\x00\x00\x00\x00\x00\x00\x00\x00\x00\x00\x00\x00\x00\x00\x00\x00\x00\x00\x00\x00\x00\x00\x00\x00\x00\x00\xf0?\x00\x00\x00\x00\x00\x00\x00\x00\x00\x00\x00\x00\x00\x00\x00\x00\x00\x00\x00\x00\x00\x00\x00\x00\x00\x00\x00\x00\x00\x00\xf0?'
p409
tp410
bsg58
g59
sg41
(dp411
I140282827474576
g374
ssbsg41
(dp412
I140282827474640
g371
ssg58
g59
sbsg74
I2
sg75
g81
sg41
(dp413
I140282827474704
g0
(g16
g2
Ntp414
Rp415
(dp416
g14
I1
sg20
g0
(g21
g2
Ntp417
Rp418
(dp419
g14
I1
sg25
g26
(g27
(I0
tp420
g29
tp421
Rp422
(I1
(I2
tp423
g36
I00
S'\x00\x00\x00\x00\x00\x00\xf0\x7f\x00\x00\x00\x00\x00\x00\xf0\x7f'
p424
tp425
bsg41
(dp426
I140282827474704
g415
ssg43
g26
(g27
(I0
tp427
g29
tp428
Rp429
(I1
(I2
I2
tp430
g36
I00
S'\x00\x00\x00\x00\x00\x00\x00\x00\x00\x00\x00\x00\x00\x00\x00\x00\x00\x00\x00\x00\x00\x00\xf0?\x00\x00\x00\x00\x00\x00\xf0?'
p431
tp432
bsg50
g26
(g27
(I0
tp433
g29
tp434
Rp435
(I1
(I2
I2
tp436
g36
I00
S'\x00\x00\x00\x00\x00\x00\x00\x00\x00\x00\x00\x00\x00\x00\x00\x00\x00\x00\x00\x00\x00\x00\xf0?\x00\x00\x00\x00\x00\x00\xf0?'
p437
tp438
bsg57
I01
sg58
g59
sbsg60
g371
sg50
Nsg41
(dp439
sg58
g59
sbssg58
g59
sbsI140282827519248
g0
(g68
g2
Ntp440
Rp441
(dp442
g14
I1
sg72
I2
sg73
g0
(g68
g2
Ntp443
Rp444
(dp445
g14
I1
sg72
I2
sg73
g0
(g79
g2
Ntp446
Rp447
(dp448
g14
I1
sg83
Nsg84
Nsg85
g0
(g21
g2
Ntp449
Rp450
(dp451
g14
I1
sg25
g26
(g27
(I0
tp452
g29
tp453
Rp454
(I1
(I2
tp455
g36
I00
S'\x00\x00\x00\x00\x00\x00\xf0\x7f\x00\x00\x00\x00\x00\x00\xf0\x7f'
p456
tp457
bsg41
(dp458
I140282827519120
g447
ssg43
g26
(g27
(I0
tp459
g29
tp460
Rp461
(I1
(I2
I2
tp462
g36
I00
S'\x00\x00\x00\x00\x00\x00\x00\x00\x00\x00\x00\x00\x00\x00\x00\x00\x00\x00\x00\x00\x00\x00\xf0?\x00\x00\x00\x00\x00\x00\xf0?'
p463
tp464
bsg50
g26
(g27
(I0
tp465
g29
tp466
Rp467
(I1
(I2
I2
tp468
g36
I00
S'\x00\x00\x00\x00\x00\x00\x00\x00\x00\x00\x00\x00\x00\x00\x00\x00\x00\x00\x00\x00\x00\x00\xf0?\x00\x00\x00\x00\x00\x00\xf0?'
p469
tp470
bsg57
I01
sg58
g59
sbsg41
(dp471
I140282827519184
g444
ssg58
g59
sbsg74
I2
sg75
g0
(g139
g2
Ntp472
Rp473
(dp474
g14
I2
sg84
Nsg83
g26
(g27
(I0
tp475
g29
tp476
Rp477
(I1
(I3
I3
tp478
g36
I00
S'\x00\x00\x00\x00\x00\x00\xf0?\x00\x00\x00\x00\x00\x00\x00\x00\x00\x00\x00\x00\x00\x00\x00\x00\x00\x00\x00\x00\x00\x00\x00\x00\x00\x00\x00\x00\x00\x00\xf0?\x00\x00\x00\x00\x00\x00\x00\x00\x00\x00\x00\x00\x00\x00\x00\x00\x00\x00\x00\x00\x00\x00\x00\x00\x00\x00\x00\x00\x00\x00\xf0?'
p479
tp480
bsg58
g59
sg41
(dp481
I140282827519184
g444
ssbsg41
(dp482
I140282827519248
g441
ssg58
g59
sbsg74
I2
sg75
g81
sg41
(dp483
I140282827519312
g0
(g16
g2
Ntp484
Rp485
(dp486
g14
I1
sg20
g0
(g21
g2
Ntp487
Rp488
(dp489
g14
I1
sg25
g26
(g27
(I0
tp490
g29
tp491
Rp492
(I1
(I2
tp493
g36
I00
S'\x00\x00\x00\x00\x00\x00\xf0\x7f\x00\x00\x00\x00\x00\x00\xf0\x7f'
p494
tp495
bsg41
(dp496
I140282827519312
g485
ssg43
g26
(g27
(I0
tp497
g29
tp498
Rp499
(I1
(I2
I2
tp500
g36
I00
S'\x00\x00\x00\x00\x00\x00\x00\x00\x00\x00\x00\x00\x00\x00\x00\x00\x00\x00\x00\x00\x00\x00\xf0?\x00\x00\x00\x00\x00\x00\xf0?'
p501
tp502
bsg50
g26
(g27
(I0
tp503
g29
tp504
Rp505
(I1
(I2
I2
tp506
g36
I00
S'\x00\x00\x00\x00\x00\x00\x00\x00\x00\x00\x00\x00\x00\x00\x00\x00\x00\x00\x00\x00\x00\x00\xf0?\x00\x00\x00\x00\x00\x00\xf0?'
p507
tp508
bsg57
I01
sg58
g59
sbsg60
g441
sg50
Nsg41
(dp509
sg58
g59
sbssg58
g59
sbsI140282827474192
g0
(g68
g2
Ntp510
Rp511
(dp512
g14
I1
sg72
I2
sg73
g0
(g68
g2
Ntp513
Rp514
(dp515
g14
I1
sg72
I2
sg73
g0
(g79
g2
Ntp516
Rp517
(dp518
g14
I1
sg83
Nsg84
Nsg85
g0
(g21
g2
Ntp519
Rp520
(dp521
g14
I1
sg25
g26
(g27
(I0
tp522
g29
tp523
Rp524
(I1
(I2
tp525
g36
I00
S'\x00\x00\x00\x00\x00\x00\xf0\x7f\x00\x00\x00\x00\x00\x00\xf0\x7f'
p526
tp527
bsg41
(dp528
I140282827474064
g517
ssg43
g26
(g27
(I0
tp529
g29
tp530
Rp531
(I1
(I2
I2
tp532
g36
I00
S'\x00\x00\x00\x00\x00\x00\x00\x00\x00\x00\x00\x00\x00\x00\x00\x00\x00\x00\x00\x00\x00\x00\xf0?\x00\x00\x00\x00\x00\x00\xf0?'
p533
tp534
bsg50
g26
(g27
(I0
tp535
g29
tp536
Rp537
(I1
(I2
I2
tp538
g36
I00
S'\x00\x00\x00\x00\x00\x00\x00\x00\x00\x00\x00\x00\x00\x00\x00\x00\x00\x00\x00\x00\x00\x00\xf0?\x00\x00\x00\x00\x00\x00\xf0?'
p539
tp540
bsg57
I01
sg58
g59
sbsg41
(dp541
I140282827474128
g514
ssg58
g59
sbsg74
I2
sg75
g0
(g139
g2
Ntp542
Rp543
(dp544
g14
I2
sg84
Nsg83
g26
(g27
(I0
tp545
g29
tp546
Rp547
(I1
(I3
I3
tp548
g36
I00
S'\x00\x00\x00\x00\x00\x00\xf0?\x00\x00\x00\x00\x00\x00\x00\x00\x00\x00\x00\x00\x00\x00\x00\x00\x00\x00\x00\x00\x00\x00\x00\x00\x00\x00\x00\x00\x00\x00\xf0?\x00\x00\x00\x00\x00\x00\x00\x00\x00\x00\x00\x00\x00\x00\x00\x00\x00\x00\x00\x00\x00\x00\x00\x00\x00\x00\x00\x00\x00\x00\xf0?'
p549
tp550
bsg58
g59
sg41
(dp551
I140282827474128
g514
ssbsg41
(dp552
I140282827474192
g511
ssg58
g59
sbsg74
I2
sg75
g81
sg41
(dp553
I140282827474256
g0
(g16
g2
Ntp554
Rp555
(dp556
g14
I1
sg20
g0
(g21
g2
Ntp557
Rp558
(dp559
g14
I1
sg25
g26
(g27
(I0
tp560
g29
tp561
Rp562
(I1
(I2
tp563
g36
I00
S'\x00\x00\x00\x00\x00\x00\xf0\x7f\x00\x00\x00\x00\x00\x00\xf0\x7f'
p564
tp565
bsg41
(dp566
I140282827474256
g555
ssg43
g26
(g27
(I0
tp567
g29
tp568
Rp569
(I1
(I2
I2
tp570
g36
I00
S'\x00\x00\x00\x00\x00\x00\x00\x00\x00\x00\x00\x00\x00\x00\x00\x00\x00\x00\x00\x00\x00\x00\xf0?\x00\x00\x00\x00\x00\x00\xf0?'
p571
tp572
bsg50
g26
(g27
(I0
tp573
g29
tp574
Rp575
(I1
(I2
I2
tp576
g36
I00
S'\x00\x00\x00\x00\x00\x00\x00\x00\x00\x00\x00\x00\x00\x00\x00\x00\x00\x00\x00\x00\x00\x00\xf0?\x00\x00\x00\x00\x00\x00\xf0?'
p577
tp578
bsg57
I01
sg58
g59
sbsg60
g511
sg50
Nsg41
(dp579
sg58
g59
sbssg58
g59
sbsI140282888392016
g0
(cmatplotlib.transforms
BlendedAffine2D
p580
g2
Ntp581
Rp582
(dp583
g14
I1
sg83
Nsg165
g0
(cmatplotlib.transforms
IdentityTransform
p584
g2
Ntp585
Rp586
(dp587
g14
I1
sg84
Nsg58
g59
sg41
(dp588
I140282888392016
g582
ssbsg166
g81
sg84
Nsg58
g59
sg41
(dp589
sbsI140282827519696
g0
(g68
g2
Ntp590
Rp591
(dp592
g14
I1
sg72
I2
sg73
g0
(g68
g2
Ntp593
Rp594
(dp595
g14
I1
sg72
I2
sg73
g0
(g79
g2
Ntp596
Rp597
(dp598
g14
I1
sg83
Nsg84
Nsg85
g0
(g21
g2
Ntp599
Rp600
(dp601
g14
I1
sg25
g26
(g27
(I0
tp602
g29
tp603
Rp604
(I1
(I2
tp605
g36
I00
S'\x00\x00\x00\x00\x00\x00\xf0\x7f\x00\x00\x00\x00\x00\x00\xf0\x7f'
p606
tp607
bsg41
(dp608
I140282827519568
g597
ssg43
g26
(g27
(I0
tp609
g29
tp610
Rp611
(I1
(I2
I2
tp612
g36
I00
S'\x00\x00\x00\x00\x00\x00\x00\x00\x00\x00\x00\x00\x00\x00\x00\x00\x00\x00\x00\x00\x00\x00\xf0?\x00\x00\x00\x00\x00\x00\xf0?'
p613
tp614
bsg50
g26
(g27
(I0
tp615
g29
tp616
Rp617
(I1
(I2
I2
tp618
g36
I00
S'\x00\x00\x00\x00\x00\x00\x00\x00\x00\x00\x00\x00\x00\x00\x00\x00\x00\x00\x00\x00\x00\x00\xf0?\x00\x00\x00\x00\x00\x00\xf0?'
p619
tp620
bsg57
I01
sg58
g59
sbsg41
(dp621
I140282827519632
g594
ssg58
g59
sbsg74
I2
sg75
g0
(g139
g2
Ntp622
Rp623
(dp624
g14
I2
sg84
Nsg83
g26
(g27
(I0
tp625
g29
tp626
Rp627
(I1
(I3
I3
tp628
g36
I00
S'\x00\x00\x00\x00\x00\x00\xf0?\x00\x00\x00\x00\x00\x00\x00\x00\x00\x00\x00\x00\x00\x00\x00\x00\x00\x00\x00\x00\x00\x00\x00\x00\x00\x00\x00\x00\x00\x00\xf0?\x00\x00\x00\x00\x00\x00\x00\x00\x00\x00\x00\x00\x00\x00\x00\x00\x00\x00\x00\x00\x00\x00\x00\x00\x00\x00\x00\x00\x00\x00\xf0?'
p629
tp630
bsg58
g59
sg41
(dp631
I140282827519632
g594
ssbsg41
(dp632
I140282827519696
g591
ssg58
g59
sbsg74
I2
sg75
g81
sg41
(dp633
I140282827519760
g0
(g16
g2
Ntp634
Rp635
(dp636
g14
I1
sg20
g0
(g21
g2
Ntp637
Rp638
(dp639
g14
I1
sg25
g26
(g27
(I0
tp640
g29
tp641
Rp642
(I1
(I2
tp643
g36
I00
S'\x00\x00\x00\x00\x00\x00\xf0\x7f\x00\x00\x00\x00\x00\x00\xf0\x7f'
p644
tp645
bsg41
(dp646
I140282827519760
g635
ssg43
g26
(g27
(I0
tp647
g29
tp648
Rp649
(I1
(I2
I2
tp650
g36
I00
S'\x00\x00\x00\x00\x00\x00\x00\x00\x00\x00\x00\x00\x00\x00\x00\x00\x00\x00\x00\x00\x00\x00\xf0?\x00\x00\x00\x00\x00\x00\xf0?'
p651
tp652
bsg50
g26
(g27
(I0
tp653
g29
tp654
Rp655
(I1
(I2
I2
tp656
g36
I00
S'\x00\x00\x00\x00\x00\x00\x00\x00\x00\x00\x00\x00\x00\x00\x00\x00\x00\x00\x00\x00\x00\x00\xf0?\x00\x00\x00\x00\x00\x00\xf0?'
p657
tp658
bsg57
I01
sg58
g59
sbsg60
g591
sg50
Nsg41
(dp659
sg58
g59
sbssg58
g59
sbsI140282888390736
g0
(g580
g2
Ntp660
Rp661
(dp662
g14
I1
sg83
Nsg165
g0
(g584
g2
Ntp663
Rp664
(dp665
g14
I1
sg84
Nsg58
g59
sg41
(dp666
I140282888390736
g661
ssbsg166
g81
sg84
Nsg58
g59
sg41
(dp667
sbsI140282827520144
g0
(g68
g2
Ntp668
Rp669
(dp670
g14
I1
sg72
I2
sg73
g0
(g68
g2
Ntp671
Rp672
(dp673
g14
I1
sg72
I2
sg73
g0
(g79
g2
Ntp674
Rp675
(dp676
g14
I1
sg83
Nsg84
Nsg85
g0
(g21
g2
Ntp677
Rp678
(dp679
g14
I1
sg25
g26
(g27
(I0
tp680
g29
tp681
Rp682
(I1
(I2
tp683
g36
I00
S'\x00\x00\x00\x00\x00\x00\xf0\x7f\x00\x00\x00\x00\x00\x00\xf0\x7f'
p684
tp685
bsg41
(dp686
I140282827520016
g675
ssg43
g26
(g27
(I0
tp687
g29
tp688
Rp689
(I1
(I2
I2
tp690
g36
I00
S'\x00\x00\x00\x00\x00\x00\x00\x00\x00\x00\x00\x00\x00\x00\x00\x00\x00\x00\x00\x00\x00\x00\xf0?\x00\x00\x00\x00\x00\x00\xf0?'
p691
tp692
bsg50
g26
(g27
(I0
tp693
g29
tp694
Rp695
(I1
(I2
I2
tp696
g36
I00
S'\x00\x00\x00\x00\x00\x00\x00\x00\x00\x00\x00\x00\x00\x00\x00\x00\x00\x00\x00\x00\x00\x00\xf0?\x00\x00\x00\x00\x00\x00\xf0?'
p697
tp698
bsg57
I01
sg58
g59
sbsg41
(dp699
I140282827520080
g672
ssg58
g59
sbsg74
I2
sg75
g0
(g139
g2
Ntp700
Rp701
(dp702
g14
I2
sg84
Nsg83
g26
(g27
(I0
tp703
g29
tp704
Rp705
(I1
(I3
I3
tp706
g36
I00
S'\x00\x00\x00\x00\x00\x00\xf0?\x00\x00\x00\x00\x00\x00\x00\x00\x00\x00\x00\x00\x00\x00\x00\x00\x00\x00\x00\x00\x00\x00\x00\x00\x00\x00\x00\x00\x00\x00\xf0?\x00\x00\x00\x00\x00\x00\x00\x00\x00\x00\x00\x00\x00\x00\x00\x00\x00\x00\x00\x00\x00\x00\x00\x00\x00\x00\x00\x00\x00\x00\xf0?'
p707
tp708
bsg58
g59
sg41
(dp709
I140282827520080
g672
ssbsg41
(dp710
I140282827520144
g669
ssg58
g59
sbsg74
I2
sg75
g81
sg41
(dp711
I140282827520208
g0
(g16
g2
Ntp712
Rp713
(dp714
g14
I1
sg20
g0
(g21
g2
Ntp715
Rp716
(dp717
g14
I1
sg25
g26
(g27
(I0
tp718
g29
tp719
Rp720
(I1
(I2
tp721
g36
I00
S'\x00\x00\x00\x00\x00\x00\xf0\x7f\x00\x00\x00\x00\x00\x00\xf0\x7f'
p722
tp723
bsg41
(dp724
I140282827520208
g713
ssg43
g26
(g27
(I0
tp725
g29
tp726
Rp727
(I1
(I2
I2
tp728
g36
I00
S'\x00\x00\x00\x00\x00\x00\x00\x00\x00\x00\x00\x00\x00\x00\x00\x00\x00\x00\x00\x00\x00\x00\xf0?\x00\x00\x00\x00\x00\x00\xf0?'
p729
tp730
bsg50
g26
(g27
(I0
tp731
g29
tp732
Rp733
(I1
(I2
I2
tp734
g36
I00
S'\x00\x00\x00\x00\x00\x00\x00\x00\x00\x00\x00\x00\x00\x00\x00\x00\x00\x00\x00\x00\x00\x00\xf0?\x00\x00\x00\x00\x00\x00\xf0?'
p735
tp736
bsg57
I01
sg58
g59
sbsg60
g669
sg50
Nsg41
(dp737
sg58
g59
sbssg58
g59
sbsI140282827569488
g0
(g68
g2
Ntp738
Rp739
(dp740
g14
I1
sg72
I2
sg73
g0
(g68
g2
Ntp741
Rp742
(dp743
g14
I1
sg72
I2
sg73
g0
(g79
g2
Ntp744
Rp745
(dp746
g14
I1
sg83
Nsg84
Nsg85
g0
(g21
g2
Ntp747
Rp748
(dp749
g14
I1
sg25
g26
(g27
(I0
tp750
g29
tp751
Rp752
(I1
(I2
tp753
g36
I00
S'\x00\x00\x00\x00\x00\x00\xf0\x7f\x00\x00\x00\x00\x00\x00\xf0\x7f'
p754
tp755
bsg41
(dp756
I140282827569360
g745
ssg43
g26
(g27
(I0
tp757
g29
tp758
Rp759
(I1
(I2
I2
tp760
g36
I00
S'\x00\x00\x00\x00\x00\x00\x00\x00\x00\x00\x00\x00\x00\x00\x00\x00\x00\x00\x00\x00\x00\x00\xf0?\x00\x00\x00\x00\x00\x00\xf0?'
p761
tp762
bsg50
g26
(g27
(I0
tp763
g29
tp764
Rp765
(I1
(I2
I2
tp766
g36
I00
S'\x00\x00\x00\x00\x00\x00\x00\x00\x00\x00\x00\x00\x00\x00\x00\x00\x00\x00\x00\x00\x00\x00\xf0?\x00\x00\x00\x00\x00\x00\xf0?'
p767
tp768
bsg57
I01
sg58
g59
sbsg41
(dp769
I140282827569424
g742
ssg58
g59
sbsg74
I2
sg75
g0
(g139
g2
Ntp770
Rp771
(dp772
g14
I2
sg84
Nsg83
g26
(g27
(I0
tp773
g29
tp774
Rp775
(I1
(I3
I3
tp776
g36
I00
S'\x00\x00\x00\x00\x00\x00\xf0?\x00\x00\x00\x00\x00\x00\x00\x00\x00\x00\x00\x00\x00\x00\x00\x00\x00\x00\x00\x00\x00\x00\x00\x00\x00\x00\x00\x00\x00\x00\xf0?\x00\x00\x00\x00\x00\x00\x00\x00\x00\x00\x00\x00\x00\x00\x00\x00\x00\x00\x00\x00\x00\x00\x00\x00\x00\x00\x00\x00\x00\x00\xf0?'
p777
tp778
bsg58
g59
sg41
(dp779
I140282827569424
g742
ssbsg41
(dp780
I140282827569488
g739
ssg58
g59
sbsg74
I2
sg75
g81
sg41
(dp781
I140282827569552
g0
(g16
g2
Ntp782
Rp783
(dp784
g14
I1
sg20
g0
(g21
g2
Ntp785
Rp786
(dp787
g14
I1
sg25
g26
(g27
(I0
tp788
g29
tp789
Rp790
(I1
(I2
tp791
g36
I00
S'\x00\x00\x00\x00\x00\x00\xf0\x7f\x00\x00\x00\x00\x00\x00\xf0\x7f'
p792
tp793
bsg41
(dp794
I140282827569552
g783
ssg43
g26
(g27
(I0
tp795
g29
tp796
Rp797
(I1
(I2
I2
tp798
g36
I00
S'\x00\x00\x00\x00\x00\x00\x00\x00\x00\x00\x00\x00\x00\x00\x00\x00\x00\x00\x00\x00\x00\x00\xf0?\x00\x00\x00\x00\x00\x00\xf0?'
p799
tp800
bsg50
g26
(g27
(I0
tp801
g29
tp802
Rp803
(I1
(I2
I2
tp804
g36
I00
S'\x00\x00\x00\x00\x00\x00\x00\x00\x00\x00\x00\x00\x00\x00\x00\x00\x00\x00\x00\x00\x00\x00\xf0?\x00\x00\x00\x00\x00\x00\xf0?'
p805
tp806
bsg57
I01
sg58
g59
sbsg60
g739
sg50
Nsg41
(dp807
sg58
g59
sbssg58
g59
sbsI140282827409808
g279
sI140282888390992
g0
(g580
g2
Ntp808
Rp809
(dp810
g14
I1
sg83
Nsg165
g0
(g584
g2
Ntp811
Rp812
(dp813
g14
I1
sg84
Nsg58
g59
sg41
(dp814
I140282888390992
g809
ssbsg166
g81
sg84
Nsg58
g59
sg41
(dp815
sbsI140282827409872
g283
sI140282827475088
g0
(g68
g2
Ntp816
Rp817
(dp818
g14
I1
sg72
I2
sg73
g0
(g68
g2
Ntp819
Rp820
(dp821
g14
I1
sg72
I2
sg73
g0
(g79
g2
Ntp822
Rp823
(dp824
g14
I1
sg83
Nsg84
Nsg85
g0
(g21
g2
Ntp825
Rp826
(dp827
g14
I1
sg25
g26
(g27
(I0
tp828
g29
tp829
Rp830
(I1
(I2
tp831
g36
I00
S'\x00\x00\x00\x00\x00\x00\xf0\x7f\x00\x00\x00\x00\x00\x00\xf0\x7f'
p832
tp833
bsg41
(dp834
I140282827474960
g823
ssg43
g26
(g27
(I0
tp835
g29
tp836
Rp837
(I1
(I2
I2
tp838
g36
I00
S'\x00\x00\x00\x00\x00\x00\x00\x00\x00\x00\x00\x00\x00\x00\x00\x00\x00\x00\x00\x00\x00\x00\xf0?\x00\x00\x00\x00\x00\x00\xf0?'
p839
tp840
bsg50
g26
(g27
(I0
tp841
g29
tp842
Rp843
(I1
(I2
I2
tp844
g36
I00
S'\x00\x00\x00\x00\x00\x00\x00\x00\x00\x00\x00\x00\x00\x00\x00\x00\x00\x00\x00\x00\x00\x00\xf0?\x00\x00\x00\x00\x00\x00\xf0?'
p845
tp846
bsg57
I01
sg58
g59
sbsg41
(dp847
I140282827475024
g820
ssg58
g59
sbsg74
I2
sg75
g0
(g139
g2
Ntp848
Rp849
(dp850
g14
I2
sg84
Nsg83
g26
(g27
(I0
tp851
g29
tp852
Rp853
(I1
(I3
I3
tp854
g36
I00
S'\x00\x00\x00\x00\x00\x00\xf0?\x00\x00\x00\x00\x00\x00\x00\x00\x00\x00\x00\x00\x00\x00\x00\x00\x00\x00\x00\x00\x00\x00\x00\x00\x00\x00\x00\x00\x00\x00\xf0?\x00\x00\x00\x00\x00\x00\x00\x00\x00\x00\x00\x00\x00\x00\x00\x00\x00\x00\x00\x00\x00\x00\x00\x00\x00\x00\x00\x00\x00\x00\xf0?'
p855
tp856
bsg58
g59
sg41
(dp857
I140282827475024
g820
ssbsg41
(dp858
I140282827475088
g817
ssg58
g59
sbsg74
I2
sg75
g81
sg41
(dp859
I140282827475152
g0
(g16
g2
Ntp860
Rp861
(dp862
g14
I1
sg20
g0
(g21
g2
Ntp863
Rp864
(dp865
g14
I1
sg25
g26
(g27
(I0
tp866
g29
tp867
Rp868
(I1
(I2
tp869
g36
I00
S'\x00\x00\x00\x00\x00\x00\xf0\x7f\x00\x00\x00\x00\x00\x00\xf0\x7f'
p870
tp871
bsg41
(dp872
I140282827475152
g861
ssg43
g26
(g27
(I0
tp873
g29
tp874
Rp875
(I1
(I2
I2
tp876
g36
I00
S'\x00\x00\x00\x00\x00\x00\x00\x00\x00\x00\x00\x00\x00\x00\x00\x00\x00\x00\x00\x00\x00\x00\xf0?\x00\x00\x00\x00\x00\x00\xf0?'
p877
tp878
bsg50
g26
(g27
(I0
tp879
g29
tp880
Rp881
(I1
(I2
I2
tp882
g36
I00
S'\x00\x00\x00\x00\x00\x00\x00\x00\x00\x00\x00\x00\x00\x00\x00\x00\x00\x00\x00\x00\x00\x00\xf0?\x00\x00\x00\x00\x00\x00\xf0?'
p883
tp884
bsg57
I01
sg58
g59
sbsg60
g817
sg50
Nsg41
(dp885
sg58
g59
sbssg58
g59
sbsI140282827409936
g287
sI140282827520592
g0
(g68
g2
Ntp886
Rp887
(dp888
g14
I1
sg72
I2
sg73
g0
(g68
g2
Ntp889
Rp890
(dp891
g14
I1
sg72
I2
sg73
g0
(g79
g2
Ntp892
Rp893
(dp894
g14
I1
sg83
Nsg84
Nsg85
g0
(g21
g2
Ntp895
Rp896
(dp897
g14
I1
sg25
g26
(g27
(I0
tp898
g29
tp899
Rp900
(I1
(I2
tp901
g36
I00
S'\x00\x00\x00\x00\x00\x00\xf0\x7f\x00\x00\x00\x00\x00\x00\xf0\x7f'
p902
tp903
bsg41
(dp904
I140282827520464
g893
ssg43
g26
(g27
(I0
tp905
g29
tp906
Rp907
(I1
(I2
I2
tp908
g36
I00
S'\x00\x00\x00\x00\x00\x00\x00\x00\x00\x00\x00\x00\x00\x00\x00\x00\x00\x00\x00\x00\x00\x00\xf0?\x00\x00\x00\x00\x00\x00\xf0?'
p909
tp910
bsg50
g26
(g27
(I0
tp911
g29
tp912
Rp913
(I1
(I2
I2
tp914
g36
I00
S'\x00\x00\x00\x00\x00\x00\x00\x00\x00\x00\x00\x00\x00\x00\x00\x00\x00\x00\x00\x00\x00\x00\xf0?\x00\x00\x00\x00\x00\x00\xf0?'
p915
tp916
bsg57
I01
sg58
g59
sbsg41
(dp917
I140282827520528
g890
ssg58
g59
sbsg74
I2
sg75
g0
(g139
g2
Ntp918
Rp919
(dp920
g14
I2
sg84
Nsg83
g26
(g27
(I0
tp921
g29
tp922
Rp923
(I1
(I3
I3
tp924
g36
I00
S'\x00\x00\x00\x00\x00\x00\xf0?\x00\x00\x00\x00\x00\x00\x00\x00\x00\x00\x00\x00\x00\x00\x00\x00\x00\x00\x00\x00\x00\x00\x00\x00\x00\x00\x00\x00\x00\x00\xf0?\x00\x00\x00\x00\x00\x00\x00\x00\x00\x00\x00\x00\x00\x00\x00\x00\x00\x00\x00\x00\x00\x00\x00\x00\x00\x00\x00\x00\x00\x00\xf0?'
p925
tp926
bsg58
g59
sg41
(dp927
I140282827520528
g890
ssbsg41
(dp928
I140282827520592
g887
ssg58
g59
sbsg74
I2
sg75
g81
sg41
(dp929
I140282827520656
g0
(g16
g2
Ntp930
Rp931
(dp932
g14
I1
sg20
g0
(g21
g2
Ntp933
Rp934
(dp935
g14
I1
sg25
g26
(g27
(I0
tp936
g29
tp937
Rp938
(I1
(I2
tp939
g36
I00
S'\x00\x00\x00\x00\x00\x00\xf0\x7f\x00\x00\x00\x00\x00\x00\xf0\x7f'
p940
tp941
bsg41
(dp942
I140282827520656
g931
ssg43
g26
(g27
(I0
tp943
g29
tp944
Rp945
(I1
(I2
I2
tp946
g36
I00
S'\x00\x00\x00\x00\x00\x00\x00\x00\x00\x00\x00\x00\x00\x00\x00\x00\x00\x00\x00\x00\x00\x00\xf0?\x00\x00\x00\x00\x00\x00\xf0?'
p947
tp948
bsg50
g26
(g27
(I0
tp949
g29
tp950
Rp951
(I1
(I2
I2
tp952
g36
I00
S'\x00\x00\x00\x00\x00\x00\x00\x00\x00\x00\x00\x00\x00\x00\x00\x00\x00\x00\x00\x00\x00\x00\xf0?\x00\x00\x00\x00\x00\x00\xf0?'
p953
tp954
bsg57
I01
sg58
g59
sbsg60
g887
sg50
Nsg41
(dp955
sg58
g59
sbssg58
g59
sbsI140282827570000
g0
(g68
g2
Ntp956
Rp957
(dp958
g14
I1
sg72
I2
sg73
g0
(g68
g2
Ntp959
Rp960
(dp961
g14
I1
sg72
I2
sg73
g0
(g79
g2
Ntp962
Rp963
(dp964
g14
I1
sg83
Nsg84
Nsg85
g0
(g21
g2
Ntp965
Rp966
(dp967
g14
I1
sg25
g26
(g27
(I0
tp968
g29
tp969
Rp970
(I1
(I2
tp971
g36
I00
S'\x00\x00\x00\x00\x00\x00\xf0\x7f\x00\x00\x00\x00\x00\x00\xf0\x7f'
p972
tp973
bsg41
(dp974
I140282827569872
g963
ssg43
g26
(g27
(I0
tp975
g29
tp976
Rp977
(I1
(I2
I2
tp978
g36
I00
S'\x00\x00\x00\x00\x00\x00\x00\x00\x00\x00\x00\x00\x00\x00\x00\x00\x00\x00\x00\x00\x00\x00\xf0?\x00\x00\x00\x00\x00\x00\xf0?'
p979
tp980
bsg50
g26
(g27
(I0
tp981
g29
tp982
Rp983
(I1
(I2
I2
tp984
g36
I00
S'\x00\x00\x00\x00\x00\x00\x00\x00\x00\x00\x00\x00\x00\x00\x00\x00\x00\x00\x00\x00\x00\x00\xf0?\x00\x00\x00\x00\x00\x00\xf0?'
p985
tp986
bsg57
I01
sg58
g59
sbsg41
(dp987
I140282827569936
g960
ssg58
g59
sbsg74
I2
sg75
g0
(g139
g2
Ntp988
Rp989
(dp990
g14
I2
sg84
Nsg83
g26
(g27
(I0
tp991
g29
tp992
Rp993
(I1
(I3
I3
tp994
g36
I00
S'\x00\x00\x00\x00\x00\x00\xf0?\x00\x00\x00\x00\x00\x00\x00\x00\x00\x00\x00\x00\x00\x00\x00\x00\x00\x00\x00\x00\x00\x00\x00\x00\x00\x00\x00\x00\x00\x00\xf0?\x00\x00\x00\x00\x00\x00\x00\x00\x00\x00\x00\x00\x00\x00\x00\x00\x00\x00\x00\x00\x00\x00\x00\x00\x00\x00\x00\x00\x00\x00\xf0?'
p995
tp996
bsg58
g59
sg41
(dp997
I140282827569936
g960
ssbsg41
(dp998
I140282827570000
g957
ssg58
g59
sbsg74
I2
sg75
g81
sg41
(dp999
I140282827570064
g0
(g16
g2
Ntp1000
Rp1001
(dp1002
g14
I1
sg20
g0
(g21
g2
Ntp1003
Rp1004
(dp1005
g14
I1
sg25
g26
(g27
(I0
tp1006
g29
tp1007
Rp1008
(I1
(I2
tp1009
g36
I00
S'\x00\x00\x00\x00\x00\x00\xf0\x7f\x00\x00\x00\x00\x00\x00\xf0\x7f'
p1010
tp1011
bsg41
(dp1012
I140282827570064
g1001
ssg43
g26
(g27
(I0
tp1013
g29
tp1014
Rp1015
(I1
(I2
I2
tp1016
g36
I00
S'\x00\x00\x00\x00\x00\x00\x00\x00\x00\x00\x00\x00\x00\x00\x00\x00\x00\x00\x00\x00\x00\x00\xf0?\x00\x00\x00\x00\x00\x00\xf0?'
p1017
tp1018
bsg50
g26
(g27
(I0
tp1019
g29
tp1020
Rp1021
(I1
(I2
I2
tp1022
g36
I00
S'\x00\x00\x00\x00\x00\x00\x00\x00\x00\x00\x00\x00\x00\x00\x00\x00\x00\x00\x00\x00\x00\x00\xf0?\x00\x00\x00\x00\x00\x00\xf0?'
p1023
tp1024
bsg57
I01
sg58
g59
sbsg60
g957
sg50
Nsg41
(dp1025
sg58
g59
sbssg58
g59
sbsI140282827475984
g0
(g68
g2
Ntp1026
Rp1027
(dp1028
g14
I1
sg72
I2
sg73
g0
(g68
g2
Ntp1029
Rp1030
(dp1031
g14
I1
sg72
I2
sg73
g0
(g79
g2
Ntp1032
Rp1033
(dp1034
g14
I1
sg83
Nsg84
Nsg85
g0
(g21
g2
Ntp1035
Rp1036
(dp1037
g14
I1
sg25
g26
(g27
(I0
tp1038
g29
tp1039
Rp1040
(I1
(I2
tp1041
g36
I00
S'\x00\x00\x00\x00\x00\x00\xf0\x7f\x00\x00\x00\x00\x00\x00\xf0\x7f'
p1042
tp1043
bsg41
(dp1044
I140282827475856
g1033
ssg43
g26
(g27
(I0
tp1045
g29
tp1046
Rp1047
(I1
(I2
I2
tp1048
g36
I00
S'\x00\x00\x00\x00\x00\x00\x00\x00\x00\x00\x00\x00\x00\x00\x00\x00\x00\x00\x00\x00\x00\x00\xf0?\x00\x00\x00\x00\x00\x00\xf0?'
p1049
tp1050
bsg50
g26
(g27
(I0
tp1051
g29
tp1052
Rp1053
(I1
(I2
I2
tp1054
g36
I00
S'\x00\x00\x00\x00\x00\x00\x00\x00\x00\x00\x00\x00\x00\x00\x00\x00\x00\x00\x00\x00\x00\x00\xf0?\x00\x00\x00\x00\x00\x00\xf0?'
p1055
tp1056
bsg57
I01
sg58
g59
sbsg41
(dp1057
I140282827475920
g1030
ssg58
g59
sbsg74
I2
sg75
g0
(g139
g2
Ntp1058
Rp1059
(dp1060
g14
I2
sg84
Nsg83
g26
(g27
(I0
tp1061
g29
tp1062
Rp1063
(I1
(I3
I3
tp1064
g36
I00
S'\x00\x00\x00\x00\x00\x00\xf0?\x00\x00\x00\x00\x00\x00\x00\x00\x00\x00\x00\x00\x00\x00\x00\x00\x00\x00\x00\x00\x00\x00\x00\x00\x00\x00\x00\x00\x00\x00\xf0?\x00\x00\x00\x00\x00\x00\x00\x00\x00\x00\x00\x00\x00\x00\x00\x00\x00\x00\x00\x00\x00\x00\x00\x00\x00\x00\x00\x00\x00\x00\xf0?'
p1065
tp1066
bsg58
g59
sg41
(dp1067
I140282827475920
g1030
ssbsg41
(dp1068
I140282827475984
g1027
ssg58
g59
sbsg74
I2
sg75
g81
sg41
(dp1069
I140282827476048
g0
(g16
g2
Ntp1070
Rp1071
(dp1072
g14
I1
sg20
g0
(g21
g2
Ntp1073
Rp1074
(dp1075
g14
I1
sg25
g26
(g27
(I0
tp1076
g29
tp1077
Rp1078
(I1
(I2
tp1079
g36
I00
S'\x00\x00\x00\x00\x00\x00\xf0\x7f\x00\x00\x00\x00\x00\x00\xf0\x7f'
p1080
tp1081
bsg41
(dp1082
I140282827476048
g1071
ssg43
g26
(g27
(I0
tp1083
g29
tp1084
Rp1085
(I1
(I2
I2
tp1086
g36
I00
S'\x00\x00\x00\x00\x00\x00\x00\x00\x00\x00\x00\x00\x00\x00\x00\x00\x00\x00\x00\x00\x00\x00\xf0?\x00\x00\x00\x00\x00\x00\xf0?'
p1087
tp1088
bsg50
g26
(g27
(I0
tp1089
g29
tp1090
Rp1091
(I1
(I2
I2
tp1092
g36
I00
S'\x00\x00\x00\x00\x00\x00\x00\x00\x00\x00\x00\x00\x00\x00\x00\x00\x00\x00\x00\x00\x00\x00\xf0?\x00\x00\x00\x00\x00\x00\xf0?'
p1093
tp1094
bsg57
I01
sg58
g59
sbsg60
g1027
sg50
Nsg41
(dp1095
sg58
g59
sbssg58
g59
sbsI140282888391760
g0
(g580
g2
Ntp1096
Rp1097
(dp1098
g14
I1
sg83
Nsg165
g81
sg166
g0
(g584
g2
Ntp1099
Rp1100
(dp1101
g14
I1
sg84
Nsg58
g59
sg41
(dp1102
I140282888391760
g1097
ssbsg84
Nsg58
g59
sg41
(dp1103
sbsI140282827568976
g0
(g68
g2
Ntp1104
Rp1105
(dp1106
g14
I1
sg72
I2
sg73
g0
(g68
g2
Ntp1107
Rp1108
(dp1109
g14
I1
sg72
I2
sg73
g0
(g79
g2
Ntp1110
Rp1111
(dp1112
g14
I1
sg83
Nsg84
Nsg85
g0
(g21
g2
Ntp1113
Rp1114
(dp1115
g14
I1
sg25
g26
(g27
(I0
tp1116
g29
tp1117
Rp1118
(I1
(I2
tp1119
g36
I00
S'\x00\x00\x00\x00\x00\x00\xf0\x7f\x00\x00\x00\x00\x00\x00\xf0\x7f'
p1120
tp1121
bsg41
(dp1122
I140282827568656
g1111
ssg43
g26
(g27
(I0
tp1123
g29
tp1124
Rp1125
(I1
(I2
I2
tp1126
g36
I00
S'\x00\x00\x00\x00\x00\x00\x00\x00\x00\x00\x00\x00\x00\x00\x00\x00\x00\x00\x00\x00\x00\x00\xf0?\x00\x00\x00\x00\x00\x00\xf0?'
p1127
tp1128
bsg50
g26
(g27
(I0
tp1129
g29
tp1130
Rp1131
(I1
(I2
I2
tp1132
g36
I00
S'\x00\x00\x00\x00\x00\x00\x00\x00\x00\x00\x00\x00\x00\x00\x00\x00\x00\x00\x00\x00\x00\x00\xf0?\x00\x00\x00\x00\x00\x00\xf0?'
p1133
tp1134
bsg57
I01
sg58
g59
sbsg41
(dp1135
I140282827568912
g1108
ssg58
g59
sbsg74
I2
sg75
g0
(g139
g2
Ntp1136
Rp1137
(dp1138
g14
I2
sg84
Nsg83
g26
(g27
(I0
tp1139
g29
tp1140
Rp1141
(I1
(I3
I3
tp1142
g36
I00
S'\x00\x00\x00\x00\x00\x00\xf0?\x00\x00\x00\x00\x00\x00\x00\x00\x00\x00\x00\x00\x00\x00\x00\x00\x00\x00\x00\x00\x00\x00\x00\x00\x00\x00\x00\x00\x00\x00\xf0?\x00\x00\x00\x00\x00\x00\x00\x00\x00\x00\x00\x00\x00\x00\x00\x00\x00\x00\x00\x00\x00\x00\x00\x00\x00\x00\x00\x00\x00\x00\xf0?'
p1143
tp1144
bsg58
g59
sg41
(dp1145
I140282827568912
g1108
ssbsg41
(dp1146
I140282827568976
g1105
ssg58
g59
sbsg74
I2
sg75
g81
sg41
(dp1147
I140282827569040
g0
(g16
g2
Ntp1148
Rp1149
(dp1150
g14
I1
sg20
g0
(g21
g2
Ntp1151
Rp1152
(dp1153
g14
I1
sg25
g26
(g27
(I0
tp1154
g29
tp1155
Rp1156
(I1
(I2
tp1157
g36
I00
S'\x00\x00\x00\x00\x00\x00\xf0\x7f\x00\x00\x00\x00\x00\x00\xf0\x7f'
p1158
tp1159
bsg41
(dp1160
I140282827569040
g1149
ssg43
g26
(g27
(I0
tp1161
g29
tp1162
Rp1163
(I1
(I2
I2
tp1164
g36
I00
S'\x00\x00\x00\x00\x00\x00\x00\x00\x00\x00\x00\x00\x00\x00\x00\x00\x00\x00\x00\x00\x00\x00\xf0?\x00\x00\x00\x00\x00\x00\xf0?'
p1165
tp1166
bsg50
g26
(g27
(I0
tp1167
g29
tp1168
Rp1169
(I1
(I2
I2
tp1170
g36
I00
S'\x00\x00\x00\x00\x00\x00\x00\x00\x00\x00\x00\x00\x00\x00\x00\x00\x00\x00\x00\x00\x00\x00\xf0?\x00\x00\x00\x00\x00\x00\xf0?'
p1171
tp1172
bsg57
I01
sg58
g59
sbsg60
g1105
sg50
Nsg41
(dp1173
sg58
g59
sbssg58
g59
sbsI140282827476368
g0
(g68
g2
Ntp1174
Rp1175
(dp1176
g14
I1
sg72
I2
sg73
g0
(g68
g2
Ntp1177
Rp1178
(dp1179
g14
I1
sg72
I2
sg73
g0
(g79
g2
Ntp1180
Rp1181
(dp1182
g14
I1
sg83
Nsg84
Nsg85
g0
(g21
g2
Ntp1183
Rp1184
(dp1185
g14
I1
sg25
g26
(g27
(I0
tp1186
g29
tp1187
Rp1188
(I1
(I2
tp1189
g36
I00
S'\x00\x00\x00\x00\x00\x00\xf0\x7f\x00\x00\x00\x00\x00\x00\xf0\x7f'
p1190
tp1191
bsg41
(dp1192
I140282827476240
g1181
ssg43
g26
(g27
(I0
tp1193
g29
tp1194
Rp1195
(I1
(I2
I2
tp1196
g36
I00
S'\x00\x00\x00\x00\x00\x00\x00\x00\x00\x00\x00\x00\x00\x00\x00\x00\x00\x00\x00\x00\x00\x00\xf0?\x00\x00\x00\x00\x00\x00\xf0?'
p1197
tp1198
bsg50
g26
(g27
(I0
tp1199
g29
tp1200
Rp1201
(I1
(I2
I2
tp1202
g36
I00
S'\x00\x00\x00\x00\x00\x00\x00\x00\x00\x00\x00\x00\x00\x00\x00\x00\x00\x00\x00\x00\x00\x00\xf0?\x00\x00\x00\x00\x00\x00\xf0?'
p1203
tp1204
bsg57
I01
sg58
g59
sbsg41
(dp1205
I140282827476304
g1178
ssg58
g59
sbsg74
I2
sg75
g0
(g139
g2
Ntp1206
Rp1207
(dp1208
g14
I2
sg84
Nsg83
g26
(g27
(I0
tp1209
g29
tp1210
Rp1211
(I1
(I3
I3
tp1212
g36
I00
S'\x00\x00\x00\x00\x00\x00\xf0?\x00\x00\x00\x00\x00\x00\x00\x00\x00\x00\x00\x00\x00\x00\x00\x00\x00\x00\x00\x00\x00\x00\x00\x00\x00\x00\x00\x00\x00\x00\xf0?\x00\x00\x00\x00\x00\x00\x00\x00\x00\x00\x00\x00\x00\x00\x00\x00\x00\x00\x00\x00\x00\x00\x00\x00\x00\x00\x00\x00\x00\x00\xf0?'
p1213
tp1214
bsg58
g59
sg41
(dp1215
I140282827476304
g1178
ssbsg41
(dp1216
I140282827476368
g1175
ssg58
g59
sbsg74
I2
sg75
g81
sg41
(dp1217
I140282827476432
g0
(g16
g2
Ntp1218
Rp1219
(dp1220
g14
I1
sg20
g0
(g21
g2
Ntp1221
Rp1222
(dp1223
g14
I1
sg25
g26
(g27
(I0
tp1224
g29
tp1225
Rp1226
(I1
(I2
tp1227
g36
I00
S'\x00\x00\x00\x00\x00\x00\xf0\x7f\x00\x00\x00\x00\x00\x00\xf0\x7f'
p1228
tp1229
bsg41
(dp1230
I140282827476432
g1219
ssg43
g26
(g27
(I0
tp1231
g29
tp1232
Rp1233
(I1
(I2
I2
tp1234
g36
I00
S'\x00\x00\x00\x00\x00\x00\x00\x00\x00\x00\x00\x00\x00\x00\x00\x00\x00\x00\x00\x00\x00\x00\xf0?\x00\x00\x00\x00\x00\x00\xf0?'
p1235
tp1236
bsg50
g26
(g27
(I0
tp1237
g29
tp1238
Rp1239
(I1
(I2
I2
tp1240
g36
I00
S'\x00\x00\x00\x00\x00\x00\x00\x00\x00\x00\x00\x00\x00\x00\x00\x00\x00\x00\x00\x00\x00\x00\xf0?\x00\x00\x00\x00\x00\x00\xf0?'
p1241
tp1242
bsg57
I01
sg58
g59
sbsg60
g1175
sg50
Nsg41
(dp1243
sg58
g59
sbssg58
g59
sbsI140282827521488
g0
(g68
g2
Ntp1244
Rp1245
(dp1246
g14
I1
sg72
I2
sg73
g0
(g68
g2
Ntp1247
Rp1248
(dp1249
g14
I1
sg72
I2
sg73
g0
(g79
g2
Ntp1250
Rp1251
(dp1252
g14
I1
sg83
Nsg84
Nsg85
g0
(g21
g2
Ntp1253
Rp1254
(dp1255
g14
I1
sg25
g26
(g27
(I0
tp1256
g29
tp1257
Rp1258
(I1
(I2
tp1259
g36
I00
S'\x00\x00\x00\x00\x00\x00\xf0\x7f\x00\x00\x00\x00\x00\x00\xf0\x7f'
p1260
tp1261
bsg41
(dp1262
I140282827521360
g1251
ssg43
g26
(g27
(I0
tp1263
g29
tp1264
Rp1265
(I1
(I2
I2
tp1266
g36
I00
S'\x00\x00\x00\x00\x00\x00\x00\x00\x00\x00\x00\x00\x00\x00\x00\x00\x00\x00\x00\x00\x00\x00\xf0?\x00\x00\x00\x00\x00\x00\xf0?'
p1267
tp1268
bsg50
g26
(g27
(I0
tp1269
g29
tp1270
Rp1271
(I1
(I2
I2
tp1272
g36
I00
S'\x00\x00\x00\x00\x00\x00\x00\x00\x00\x00\x00\x00\x00\x00\x00\x00\x00\x00\x00\x00\x00\x00\xf0?\x00\x00\x00\x00\x00\x00\xf0?'
p1273
tp1274
bsg57
I01
sg58
g59
sbsg41
(dp1275
I140282827521424
g1248
ssg58
g59
sbsg74
I2
sg75
g0
(g139
g2
Ntp1276
Rp1277
(dp1278
g14
I2
sg84
Nsg83
g26
(g27
(I0
tp1279
g29
tp1280
Rp1281
(I1
(I3
I3
tp1282
g36
I00
S'\x00\x00\x00\x00\x00\x00\xf0?\x00\x00\x00\x00\x00\x00\x00\x00\x00\x00\x00\x00\x00\x00\x00\x00\x00\x00\x00\x00\x00\x00\x00\x00\x00\x00\x00\x00\x00\x00\xf0?\x00\x00\x00\x00\x00\x00\x00\x00\x00\x00\x00\x00\x00\x00\x00\x00\x00\x00\x00\x00\x00\x00\x00\x00\x00\x00\x00\x00\x00\x00\xf0?'
p1283
tp1284
bsg58
g59
sg41
(dp1285
I140282827521424
g1248
ssbsg41
(dp1286
I140282827521488
g1245
ssg58
g59
sbsg74
I2
sg75
g81
sg41
(dp1287
I140282827521552
g0
(g16
g2
Ntp1288
Rp1289
(dp1290
g14
I1
sg20
g0
(g21
g2
Ntp1291
Rp1292
(dp1293
g14
I1
sg25
g26
(g27
(I0
tp1294
g29
tp1295
Rp1296
(I1
(I2
tp1297
g36
I00
S'\x00\x00\x00\x00\x00\x00\xf0\x7f\x00\x00\x00\x00\x00\x00\xf0\x7f'
p1298
tp1299
bsg41
(dp1300
I140282827521552
g1289
ssg43
g26
(g27
(I0
tp1301
g29
tp1302
Rp1303
(I1
(I2
I2
tp1304
g36
I00
S'\x00\x00\x00\x00\x00\x00\x00\x00\x00\x00\x00\x00\x00\x00\x00\x00\x00\x00\x00\x00\x00\x00\xf0?\x00\x00\x00\x00\x00\x00\xf0?'
p1305
tp1306
bsg50
g26
(g27
(I0
tp1307
g29
tp1308
Rp1309
(I1
(I2
I2
tp1310
g36
I00
S'\x00\x00\x00\x00\x00\x00\x00\x00\x00\x00\x00\x00\x00\x00\x00\x00\x00\x00\x00\x00\x00\x00\xf0?\x00\x00\x00\x00\x00\x00\xf0?'
p1311
tp1312
bsg57
I01
sg58
g59
sbsg60
g1245
sg50
Nsg41
(dp1313
sg58
g59
sbssg58
g59
sbsI140282827570576
g0
(g68
g2
Ntp1314
Rp1315
(dp1316
g14
I1
sg72
I2
sg73
g0
(g68
g2
Ntp1317
Rp1318
(dp1319
g14
I1
sg72
I2
sg73
g0
(g79
g2
Ntp1320
Rp1321
(dp1322
g14
I1
sg83
Nsg84
Nsg85
g0
(g21
g2
Ntp1323
Rp1324
(dp1325
g14
I1
sg25
g26
(g27
(I0
tp1326
g29
tp1327
Rp1328
(I1
(I2
tp1329
g36
I00
S'\x00\x00\x00\x00\x00\x00\xf0\x7f\x00\x00\x00\x00\x00\x00\xf0\x7f'
p1330
tp1331
bsg41
(dp1332
I140282827570448
g1321
ssg43
g26
(g27
(I0
tp1333
g29
tp1334
Rp1335
(I1
(I2
I2
tp1336
g36
I00
S'\x00\x00\x00\x00\x00\x00\x00\x00\x00\x00\x00\x00\x00\x00\x00\x00\x00\x00\x00\x00\x00\x00\xf0?\x00\x00\x00\x00\x00\x00\xf0?'
p1337
tp1338
bsg50
g26
(g27
(I0
tp1339
g29
tp1340
Rp1341
(I1
(I2
I2
tp1342
g36
I00
S'\x00\x00\x00\x00\x00\x00\x00\x00\x00\x00\x00\x00\x00\x00\x00\x00\x00\x00\x00\x00\x00\x00\xf0?\x00\x00\x00\x00\x00\x00\xf0?'
p1343
tp1344
bsg57
I01
sg58
g59
sbsg41
(dp1345
I140282827570512
g1318
ssg58
g59
sbsg74
I2
sg75
g0
(g139
g2
Ntp1346
Rp1347
(dp1348
g14
I2
sg84
Nsg83
g26
(g27
(I0
tp1349
g29
tp1350
Rp1351
(I1
(I3
I3
tp1352
g36
I00
S'\x00\x00\x00\x00\x00\x00\xf0?\x00\x00\x00\x00\x00\x00\x00\x00\x00\x00\x00\x00\x00\x00\x00\x00\x00\x00\x00\x00\x00\x00\x00\x00\x00\x00\x00\x00\x00\x00\xf0?\x00\x00\x00\x00\x00\x00\x00\x00\x00\x00\x00\x00\x00\x00\x00\x00\x00\x00\x00\x00\x00\x00\x00\x00\x00\x00\x00\x00\x00\x00\xf0?'
p1353
tp1354
bsg58
g59
sg41
(dp1355
I140282827570512
g1318
ssbsg41
(dp1356
I140282827570576
g1315
ssg58
g59
sbsg74
I2
sg75
g81
sg41
(dp1357
I140282827570640
g0
(g16
g2
Ntp1358
Rp1359
(dp1360
g14
I1
sg20
g0
(g21
g2
Ntp1361
Rp1362
(dp1363
g14
I1
sg25
g26
(g27
(I0
tp1364
g29
tp1365
Rp1366
(I1
(I2
tp1367
g36
I00
S'\x00\x00\x00\x00\x00\x00\xf0\x7f\x00\x00\x00\x00\x00\x00\xf0\x7f'
p1368
tp1369
bsg41
(dp1370
I140282827570640
g1359
ssg43
g26
(g27
(I0
tp1371
g29
tp1372
Rp1373
(I1
(I2
I2
tp1374
g36
I00
S'\x00\x00\x00\x00\x00\x00\x00\x00\x00\x00\x00\x00\x00\x00\x00\x00\x00\x00\x00\x00\x00\x00\xf0?\x00\x00\x00\x00\x00\x00\xf0?'
p1375
tp1376
bsg50
g26
(g27
(I0
tp1377
g29
tp1378
Rp1379
(I1
(I2
I2
tp1380
g36
I00
S'\x00\x00\x00\x00\x00\x00\x00\x00\x00\x00\x00\x00\x00\x00\x00\x00\x00\x00\x00\x00\x00\x00\xf0?\x00\x00\x00\x00\x00\x00\xf0?'
p1381
tp1382
bsg57
I01
sg58
g59
sbsg60
g1315
sg50
Nsg41
(dp1383
sg58
g59
sbssg58
g59
sbsI140282827410320
g0
(g68
g2
Ntp1384
Rp1385
(dp1386
g14
I1
sg72
I2
sg73
g0
(g68
g2
Ntp1387
Rp1388
(dp1389
g14
I1
sg72
I2
sg73
g0
(g79
g2
Ntp1390
Rp1391
(dp1392
g14
I1
sg83
Nsg84
Nsg85
g0
(g21
g2
Ntp1393
Rp1394
(dp1395
g14
I1
sg25
g26
(g27
(I0
tp1396
g29
tp1397
Rp1398
(I1
(I2
tp1399
g36
I00
S'\x00\x00\x00\x00\x00\x00\xf0\x7f\x00\x00\x00\x00\x00\x00\xf0\x7f'
p1400
tp1401
bsg41
(dp1402
I140282827410256
g1391
ssg43
g26
(g27
(I0
tp1403
g29
tp1404
Rp1405
(I1
(I2
I2
tp1406
g36
I00
S'\x00\x00\x00\x00\x00\x00\x00\x00\x00\x00\x00\x00\x00\x00\x00\x00\x00\x00\x00\x00\x00\x00\xf0?\x00\x00\x00\x00\x00\x00\xf0?'
p1407
tp1408
bsg50
g26
(g27
(I0
tp1409
g29
tp1410
Rp1411
(I1
(I2
I2
tp1412
g36
I00
S'\x00\x00\x00\x00\x00\x00\x00\x00\x00\x00\x00\x00\x00\x00\x00\x00\x00\x00\x00\x00\x00\x00\xf0?\x00\x00\x00\x00\x00\x00\xf0?'
p1413
tp1414
bsg57
I01
sg58
g59
sbsg41
(dp1415
I140282827410000
g1388
ssg58
g59
sbsg74
I2
sg75
g0
(g139
g2
Ntp1416
Rp1417
(dp1418
g14
I2
sg84
Nsg83
g26
(g27
(I0
tp1419
g29
tp1420
Rp1421
(I1
(I3
I3
tp1422
g36
I00
S'\x00\x00\x00\x00\x00\x00\xf0?\x00\x00\x00\x00\x00\x00\x00\x00\x00\x00\x00\x00\x00\x00\x00\x00\x00\x00\x00\x00\x00\x00\x00\x00\x00\x00\x00\x00\x00\x00\xf0?\x00\x00\x00\x00\x00\x00\x00\x00\x00\x00\x00\x00\x00\x00\x00\x00\x00\x00\x00\x00\x00\x00\x00\x00\x00\x00\x00\x00\x00\x00\xf0?'
p1423
tp1424
bsg58
g59
sg41
(dp1425
I140282827410000
g1388
ssbsg41
(dp1426
I140282827410320
g1385
ssg58
g59
sbsg74
I2
sg75
g81
sg41
(dp1427
I140282827410384
g0
(g16
g2
Ntp1428
Rp1429
(dp1430
g14
I1
sg20
g0
(g21
g2
Ntp1431
Rp1432
(dp1433
g14
I1
sg25
g26
(g27
(I0
tp1434
g29
tp1435
Rp1436
(I1
(I2
tp1437
g36
I00
S'\x00\x00\x00\x00\x00\x00\xf0\x7f\x00\x00\x00\x00\x00\x00\xf0\x7f'
p1438
tp1439
bsg41
(dp1440
I140282827410384
g1429
ssg43
g26
(g27
(I0
tp1441
g29
tp1442
Rp1443
(I1
(I2
I2
tp1444
g36
I00
S'\x00\x00\x00\x00\x00\x00\x00\x00\x00\x00\x00\x00\x00\x00\x00\x00\x00\x00\x00\x00\x00\x00\xf0?\x00\x00\x00\x00\x00\x00\xf0?'
p1445
tp1446
bsg50
g26
(g27
(I0
tp1447
g29
tp1448
Rp1449
(I1
(I2
I2
tp1450
g36
I00
S'\x00\x00\x00\x00\x00\x00\x00\x00\x00\x00\x00\x00\x00\x00\x00\x00\x00\x00\x00\x00\x00\x00\xf0?\x00\x00\x00\x00\x00\x00\xf0?'
p1451
tp1452
bsg57
I01
sg58
g59
sbsg60
g1385
sg50
Nsg41
(dp1453
sg58
g59
sbssg58
g59
sbsI140282827521040
g0
(g68
g2
Ntp1454
Rp1455
(dp1456
g14
I1
sg72
I2
sg73
g0
(g68
g2
Ntp1457
Rp1458
(dp1459
g14
I1
sg72
I2
sg73
g0
(g79
g2
Ntp1460
Rp1461
(dp1462
g14
I1
sg83
Nsg84
Nsg85
g0
(g21
g2
Ntp1463
Rp1464
(dp1465
g14
I1
sg25
g26
(g27
(I0
tp1466
g29
tp1467
Rp1468
(I1
(I2
tp1469
g36
I00
S'\x00\x00\x00\x00\x00\x00\xf0\x7f\x00\x00\x00\x00\x00\x00\xf0\x7f'
p1470
tp1471
bsg41
(dp1472
I140282827520912
g1461
ssg43
g26
(g27
(I0
tp1473
g29
tp1474
Rp1475
(I1
(I2
I2
tp1476
g36
I00
S'\x00\x00\x00\x00\x00\x00\x00\x00\x00\x00\x00\x00\x00\x00\x00\x00\x00\x00\x00\x00\x00\x00\xf0?\x00\x00\x00\x00\x00\x00\xf0?'
p1477
tp1478
bsg50
g26
(g27
(I0
tp1479
g29
tp1480
Rp1481
(I1
(I2
I2
tp1482
g36
I00
S'\x00\x00\x00\x00\x00\x00\x00\x00\x00\x00\x00\x00\x00\x00\x00\x00\x00\x00\x00\x00\x00\x00\xf0?\x00\x00\x00\x00\x00\x00\xf0?'
p1483
tp1484
bsg57
I01
sg58
g59
sbsg41
(dp1485
I140282827520976
g1458
ssg58
g59
sbsg74
I2
sg75
g0
(g139
g2
Ntp1486
Rp1487
(dp1488
g14
I2
sg84
Nsg83
g26
(g27
(I0
tp1489
g29
tp1490
Rp1491
(I1
(I3
I3
tp1492
g36
I00
S'\x00\x00\x00\x00\x00\x00\xf0?\x00\x00\x00\x00\x00\x00\x00\x00\x00\x00\x00\x00\x00\x00\x00\x00\x00\x00\x00\x00\x00\x00\x00\x00\x00\x00\x00\x00\x00\x00\xf0?\x00\x00\x00\x00\x00\x00\x00\x00\x00\x00\x00\x00\x00\x00\x00\x00\x00\x00\x00\x00\x00\x00\x00\x00\x00\x00\x00\x00\x00\x00\xf0?'
p1493
tp1494
bsg58
g59
sg41
(dp1495
I140282827520976
g1458
ssbsg41
(dp1496
I140282827521040
g1455
ssg58
g59
sbsg74
I2
sg75
g81
sg41
(dp1497
I140282827521104
g0
(g16
g2
Ntp1498
Rp1499
(dp1500
g14
I1
sg20
g0
(g21
g2
Ntp1501
Rp1502
(dp1503
g14
I1
sg25
g26
(g27
(I0
tp1504
g29
tp1505
Rp1506
(I1
(I2
tp1507
g36
I00
S'\x00\x00\x00\x00\x00\x00\xf0\x7f\x00\x00\x00\x00\x00\x00\xf0\x7f'
p1508
tp1509
bsg41
(dp1510
I140282827521104
g1499
ssg43
g26
(g27
(I0
tp1511
g29
tp1512
Rp1513
(I1
(I2
I2
tp1514
g36
I00
S'\x00\x00\x00\x00\x00\x00\x00\x00\x00\x00\x00\x00\x00\x00\x00\x00\x00\x00\x00\x00\x00\x00\xf0?\x00\x00\x00\x00\x00\x00\xf0?'
p1515
tp1516
bsg50
g26
(g27
(I0
tp1517
g29
tp1518
Rp1519
(I1
(I2
I2
tp1520
g36
I00
S'\x00\x00\x00\x00\x00\x00\x00\x00\x00\x00\x00\x00\x00\x00\x00\x00\x00\x00\x00\x00\x00\x00\xf0?\x00\x00\x00\x00\x00\x00\xf0?'
p1521
tp1522
bsg57
I01
sg58
g59
sbsg60
g1455
sg50
Nsg41
(dp1523
sg58
g59
sbssg58
g59
sbsI140282888388944
g163
sI140282888389008
g224
sI140282827475536
g0
(g68
g2
Ntp1524
Rp1525
(dp1526
g14
I1
sg72
I2
sg73
g0
(g68
g2
Ntp1527
Rp1528
(dp1529
g14
I1
sg72
I2
sg73
g0
(g79
g2
Ntp1530
Rp1531
(dp1532
g14
I1
sg83
Nsg84
Nsg85
g0
(g21
g2
Ntp1533
Rp1534
(dp1535
g14
I1
sg25
g26
(g27
(I0
tp1536
g29
tp1537
Rp1538
(I1
(I2
tp1539
g36
I00
S'\x00\x00\x00\x00\x00\x00\xf0\x7f\x00\x00\x00\x00\x00\x00\xf0\x7f'
p1540
tp1541
bsg41
(dp1542
I140282827475408
g1531
ssg43
g26
(g27
(I0
tp1543
g29
tp1544
Rp1545
(I1
(I2
I2
tp1546
g36
I00
S'\x00\x00\x00\x00\x00\x00\x00\x00\x00\x00\x00\x00\x00\x00\x00\x00\x00\x00\x00\x00\x00\x00\xf0?\x00\x00\x00\x00\x00\x00\xf0?'
p1547
tp1548
bsg50
g26
(g27
(I0
tp1549
g29
tp1550
Rp1551
(I1
(I2
I2
tp1552
g36
I00
S'\x00\x00\x00\x00\x00\x00\x00\x00\x00\x00\x00\x00\x00\x00\x00\x00\x00\x00\x00\x00\x00\x00\xf0?\x00\x00\x00\x00\x00\x00\xf0?'
p1553
tp1554
bsg57
I01
sg58
g59
sbsg41
(dp1555
I140282827475472
g1528
ssg58
g59
sbsg74
I2
sg75
g0
(g139
g2
Ntp1556
Rp1557
(dp1558
g14
I2
sg84
Nsg83
g26
(g27
(I0
tp1559
g29
tp1560
Rp1561
(I1
(I3
I3
tp1562
g36
I00
S'\x00\x00\x00\x00\x00\x00\xf0?\x00\x00\x00\x00\x00\x00\x00\x00\x00\x00\x00\x00\x00\x00\x00\x00\x00\x00\x00\x00\x00\x00\x00\x00\x00\x00\x00\x00\x00\x00\xf0?\x00\x00\x00\x00\x00\x00\x00\x00\x00\x00\x00\x00\x00\x00\x00\x00\x00\x00\x00\x00\x00\x00\x00\x00\x00\x00\x00\x00\x00\x00\xf0?'
p1563
tp1564
bsg58
g59
sg41
(dp1565
I140282827475472
g1528
ssbsg41
(dp1566
I140282827475536
g1525
ssg58
g59
sbsg74
I2
sg75
g81
sg41
(dp1567
I140282827475600
g0
(g16
g2
Ntp1568
Rp1569
(dp1570
g14
I1
sg20
g0
(g21
g2
Ntp1571
Rp1572
(dp1573
g14
I1
sg25
g26
(g27
(I0
tp1574
g29
tp1575
Rp1576
(I1
(I2
tp1577
g36
I00
S'\x00\x00\x00\x00\x00\x00\xf0\x7f\x00\x00\x00\x00\x00\x00\xf0\x7f'
p1578
tp1579
bsg41
(dp1580
I140282827475600
g1569
ssg43
g26
(g27
(I0
tp1581
g29
tp1582
Rp1583
(I1
(I2
I2
tp1584
g36
I00
S'\x00\x00\x00\x00\x00\x00\x00\x00\x00\x00\x00\x00\x00\x00\x00\x00\x00\x00\x00\x00\x00\x00\xf0?\x00\x00\x00\x00\x00\x00\xf0?'
p1585
tp1586
bsg50
g26
(g27
(I0
tp1587
g29
tp1588
Rp1589
(I1
(I2
I2
tp1590
g36
I00
S'\x00\x00\x00\x00\x00\x00\x00\x00\x00\x00\x00\x00\x00\x00\x00\x00\x00\x00\x00\x00\x00\x00\xf0?\x00\x00\x00\x00\x00\x00\xf0?'
p1591
tp1592
bsg57
I01
sg58
g59
sbsg60
g1525
sg50
Nsg41
(dp1593
sg58
g59
sbssg58
g59
sbsI140282827568464
g0
(g68
g2
Ntp1594
Rp1595
(dp1596
g14
I1
sg72
I2
sg73
g0
(g68
g2
Ntp1597
Rp1598
(dp1599
g14
I1
sg72
I2
sg73
g0
(g79
g2
Ntp1600
Rp1601
(dp1602
g14
I1
sg83
Nsg84
Nsg85
g0
(g21
g2
Ntp1603
Rp1604
(dp1605
g14
I1
sg25
g26
(g27
(I0
tp1606
g29
tp1607
Rp1608
(I1
(I2
tp1609
g36
I00
S'\x00\x00\x00\x00\x00\x00\xf0\x7f\x00\x00\x00\x00\x00\x00\xf0\x7f'
p1610
tp1611
bsg41
(dp1612
I140282827568336
g1601
ssg43
g26
(g27
(I0
tp1613
g29
tp1614
Rp1615
(I1
(I2
I2
tp1616
g36
I00
S'\x00\x00\x00\x00\x00\x00\x00\x00\x00\x00\x00\x00\x00\x00\x00\x00\x00\x00\x00\x00\x00\x00\xf0?\x00\x00\x00\x00\x00\x00\xf0?'
p1617
tp1618
bsg50
g26
(g27
(I0
tp1619
g29
tp1620
Rp1621
(I1
(I2
I2
tp1622
g36
I00
S'\x00\x00\x00\x00\x00\x00\x00\x00\x00\x00\x00\x00\x00\x00\x00\x00\x00\x00\x00\x00\x00\x00\xf0?\x00\x00\x00\x00\x00\x00\xf0?'
p1623
tp1624
bsg57
I01
sg58
g59
sbsg41
(dp1625
I140282827568400
g1598
ssg58
g59
sbsg74
I2
sg75
g0
(g139
g2
Ntp1626
Rp1627
(dp1628
g14
I2
sg84
Nsg83
g26
(g27
(I0
tp1629
g29
tp1630
Rp1631
(I1
(I3
I3
tp1632
g36
I00
S'\x00\x00\x00\x00\x00\x00\xf0?\x00\x00\x00\x00\x00\x00\x00\x00\x00\x00\x00\x00\x00\x00\x00\x00\x00\x00\x00\x00\x00\x00\x00\x00\x00\x00\x00\x00\x00\x00\xf0?\x00\x00\x00\x00\x00\x00\x00\x00\x00\x00\x00\x00\x00\x00\x00\x00\x00\x00\x00\x00\x00\x00\x00\x00\x00\x00\x00\x00\x00\x00\xf0?'
p1633
tp1634
bsg58
g59
sg41
(dp1635
I140282827568400
g1598
ssbsg41
(dp1636
I140282827568464
g1595
ssg58
g59
sbsg74
I2
sg75
g81
sg41
(dp1637
I140282827568528
g0
(g16
g2
Ntp1638
Rp1639
(dp1640
g14
I1
sg20
g0
(g21
g2
Ntp1641
Rp1642
(dp1643
g14
I1
sg25
g26
(g27
(I0
tp1644
g29
tp1645
Rp1646
(I1
(I2
tp1647
g36
I00
S'\x00\x00\x00\x00\x00\x00\xf0\x7f\x00\x00\x00\x00\x00\x00\xf0\x7f'
p1648
tp1649
bsg41
(dp1650
I140282827568528
g1639
ssg43
g26
(g27
(I0
tp1651
g29
tp1652
Rp1653
(I1
(I2
I2
tp1654
g36
I00
S'\x00\x00\x00\x00\x00\x00\x00\x00\x00\x00\x00\x00\x00\x00\x00\x00\x00\x00\x00\x00\x00\x00\xf0?\x00\x00\x00\x00\x00\x00\xf0?'
p1655
tp1656
bsg50
g26
(g27
(I0
tp1657
g29
tp1658
Rp1659
(I1
(I2
I2
tp1660
g36
I00
S'\x00\x00\x00\x00\x00\x00\x00\x00\x00\x00\x00\x00\x00\x00\x00\x00\x00\x00\x00\x00\x00\x00\xf0?\x00\x00\x00\x00\x00\x00\xf0?'
p1661
tp1662
bsg57
I01
sg58
g59
sbsg60
g1595
sg50
Nsg41
(dp1663
sg58
g59
sbssg58
g59
sbssg58
g59
sbsg41
(dp1664
I140282888388880
g70
sI140282827568848
NsI140282827570192
NsI140282827569680
NsI140282827570768
Nssg58
g59
sbsg41
(dp1665
I140282888388944
g163
sI140282888389008
g224
sI140282827568592
NsI140282827568720
Nssg58
g59
sbsI140282827569680
NsI140282827570768
NsI140282888334992
g18
sI140282827568848
NssVinput_dims
p1666
I2
sVchild
p1667
g0
(g580
g2
Ntp1668
Rp1669
(dp1670
g14
I0
sg83
g26
(g27
(I0
tp1671
g29
tp1672
Rp1673
(I1
(I3
I3
tp1674
g36
I00
S'\x00\x00\x00\x00\x00\x00\xf0?\x00\x00\x00\x00\x00\x00\x00\x00\x00\x00\x00\x00\x00\x00\x00\x00\x00\x00\x00\x00\x00\x00\x00\x00\x00\x00\x00\x00\x00\x00\xf0?\x00\x00\x00\x00\x00\x00\x00\x00\x00\x00\x00\x00\x00\x00\x00\x00\x00\x00\x00\x00\x00\x00\x00\x00\x00\x00\x00\x00\x00\x00\xf0?'
p1675
tp1676
bsg165
g0
(g584
g2
Ntp1677
Rp1678
(dp1679
g14
I1
sg84
Nsg58
g59
sg41
(dp1680
I140282888479120
g1669
ssbsg166
g0
(g584
g2
Ntp1681
Rp1682
(dp1683
g14
I1
sg84
Nsg58
g59
sg41
(dp1684
I140282888479120
g1669
ssbsg84
Nsg58
g59
sg41
(dp1685
I140282888388816
g63
ssbsbsg50
Nsg41
(dp1686
I140282888335056
g12
ssg58
g59
sbsg83
Nsg84
Nsg58
g59
sg41
(dp1687
I140283238486928
g77
ssbsS'_get_patches_for_fill'
p1688
g0
(cmatplotlib.axes._base
_process_plot_var_args
p1689
g2
Ntp1690
Rp1691
(dp1692
Vaxes
p1693
g7
sVcommand
p1694
Vfill
p1695
sbsS'_xcid'
p1696
I1
sS'_label'
p1697
g59
sS'legend_'
p1698
NsS'_use_sticky_edges'
p1699
I01
sS'texts'
p1700
(lp1701
sS'_frameon'
p1702
I01
sS'_autoscaleYon'
p1703
I00
sS'_hold'
p1704
I01
sS'artists'
p1705
(lp1706
g0
(cmatplotlib.patches
Circle
p1707
g2
Ntp1708
Rp1709
(dp1710
g1697
g59
sS'_visible'
p1711
I01
sS'_fill'
p1712
I01
sS'figure'
p1713
g0
(cmatplotlib.figure
Figure
p1714
g2
Ntp1715
Rp1716
(dp1717
g1697
g59
sS'_constrained_layout_pads'
p1718
(dp1719
Vw_pad
p1720
F0.04167
sVwspace
p1721
F0.02
sVh_pad
p1722
F0.04167
sVhspace
p1723
F0.02
ssg1713
Nsg1711
I01
sS'stale_callback'
p1724
NsS'_rasterized'
p1725
Nsg1700
(lp1726
sg1704
I01
sg1705
(lp1727
sS'_path_effects'
p1728
(lp1729
sS'frameon'
p1730
I01
sS'_clipon'
p1731
I01
sV__mpl_version__
p1732
S'2.2.4'
p1733
sS'_clippath'
p1734
NsS'_sketch'
p1735
NsS'_contains'
p1736
NsS'_tight_parameters'
p1737
(dp1738
sS'_oid'
p1739
I0
sS'_mouseover'
p1740
I00
sS'_animated'
p1741
I00
sS'_propobservers'
p1742
(dp1743
sS'eventson'
p1744
I00
sS'_picker'
p1745
NsS'_remove_method'
p1746
NsS'_agg_filter'
p1747
NsS'clipbox'
p1748
NsV_restore_to_pylab
p1749
I01
sS'images'
p1750
(lp1751
sS'bbox_inches'
p1752
g118
sS'_suptitle'
p1753
NsS'_align_xlabel_grp'
p1754
g0
(cmatplotlib.cbook
Grouper
p1755
g2
Ntp1756
Rp1757
(dp1758
S'_mapping'
p1759
(dp1760
sbsS'number'
p1761
I1
sS'callbacks'
p1762
g0
(cmatplotlib.cbook
CallbackRegistry
p1763
g2
Ntp1764
Rp1765
(dp1766
S'exception_handler'
p1767
cmatplotlib.cbook
_exception_printer
p1768
sbsS'_snap'
p1769
NsS'_tight'
p1770
I00
sS'_stale'
p1771
I01
sS'dpi_scale_trans'
p1772
g141
sS'_sticky_edges'
p1773
g0
(cmatplotlib.artist
_XYPair
p1774
c__builtin__
tuple
p1775
((lp1776
(lp1777
tp1778
tp1779
Rp1780
sS'_constrained'
p1781
I00
sS'patches'
p1782
(lp1783
sS'legends'
p1784
(lp1785
sS'suppressComposite'
p1786
NsS'_transformSet'
p1787
I00
sS'_alpha'
p1788
NsS'_axstack'
p1789
g0
(cmatplotlib.figure
AxesStack
p1790
g2
Ntp1791
Rp1792
(dp1793
S'_default'
p1794
NsS'_elements'
p1795
(lp1796
(((g0
(cmatplotlib.gridspec
SubplotSpec
p1797
g2
Ntp1798
Rp1799
(dp1800
S'num1'
p1801
cnumpy.core.multiarray
scalar
p1802
(g33
(S'i8'
p1803
I0
I1
tp1804
Rp1805
(I3
S'<'
p1806
NNNI-1
I-1
I0
tp1807
bS'\x00\x00\x00\x00\x00\x00\x00\x00'
p1808
tp1809
Rp1810
sS'num2'
p1811
g1802
(g1805
S'\x00\x00\x00\x00\x00\x00\x00\x00'
p1812
tp1813
Rp1814
sS'_gridspec'
p1815
g0
(cmatplotlib.gridspec
GridSpec
p1816
g2
Ntp1817
Rp1818
(dp1819
S'_nrows'
p1820
I1
sS'right'
p1821
NsS'_col_width_ratios'
p1822
Nsg1713
NsS'bottom'
p1823
NsS'top'
p1824
NsS'wspace'
p1825
NsS'_ncols'
p1826
I1
sS'hspace'
p1827
NsS'_row_height_ratios'
p1828
NsS'left'
p1829
Nsbsbtp1830
((Vsharey
p1831
Ntp1832
(Vsharex
p1833
Ntp1834
tp1835
tp1836
(I1
g7
tp1837
tp1838
asS'_ind'
p1839
I1
sS'_pos'
p1840
I0
sbsg60
NsS'lines'
p1841
(lp1842
sS'patch'
p1843
g0
(cmatplotlib.patches
Rectangle
p1844
g2
Ntp1845
Rp1846
(dp1847
g1697
g59
sS'_width'
p1848
I1
sg1712
I01
sg1713
g1716
sg1711
I01
sg1724
Nsg1747
Nsg1728
g1729
sS'_gid'
p1849
NsS'_x0'
p1850
I0
sg1731
I01
sS'_combined_transform'
p1851
g0
(g584
g2
Ntp1852
Rp1853
(dp1854
g14
I1
sg84
Nsg58
g59
sg41
(dp1855
sbsS'_edgecolor'
p1856
(g1802
(g36
S'\x00\x00\x00\x00\x00\x00\xf0?'
p1857
tp1858
Rp1859
g1802
(g36
S'\x00\x00\x00\x00\x00\x00\xf0?'
p1860
tp1861
Rp1862
g1802
(g36
S'\x00\x00\x00\x00\x00\x00\xf0?'
p1863
tp1864
Rp1865
I1
tp1866
sS'angle'
p1867
F0.0
sg1734
Nsg1735
NsS'_original_edgecolor'
p1868
S'w'
p1869
sg1725
NsS'_x1'
p1870
I1
sg1740
I00
sg1741
I00
sg1742
(dp1871
sS'_rect_transform'
p1872
g0
(g584
g2
Ntp1873
Rp1874
(dp1875
g14
I1
sg84
Nsg58
g59
sg41
(dp1876
sbsg1744
I00
sS'_hatch'
p1877
Nsg1771
I01
sS'_linewidth'
p1878
F0.0
sg1748
NsS'_height'
p1879
I1
sg1745
NsS'_hatch_color'
p1880
g1866
sS'_dashes'
p1881
NsS'_antialiased'
p1882
I00
sS'_dashoffset'
p1883
NsS'_original_facecolor'
p1884
g1869
sg1769
NsS'_facecolor'
p1885
g1866
sS'_joinstyle'
p1886
Vmiter
p1887
sS'_linestyle'
p1888
Vsolid
p1889
sg1773
g0
(g1774
g1775
((lp1890
(lp1891
tp1892
tp1893
Rp1894
sg1739
I0
sS'_y1'
p1895
I1
sS'_y0'
p1896
I0
sg1787
I01
sg1788
Nsg60
g112
sS'_us_dashes'
p1897
(NNtp1898
sS'_capstyle'
p1899
Vbutt
p1900
sS'_url'
p1901
Nsg1736
NsS'_axes'
p1902
Nsg1746
NsbsS'subplotpars'
p1903
g0
(cmatplotlib.figure
SubplotParams
p1904
g2
Ntp1905
Rp1906
(dp1907
g1821
F0.9
sg1823
F0.11
sg1824
F0.88
sg1825
F0.2
sS'validate'
p1908
I01
sg1827
F0.2
sg1829
F0.125
sbsg1849
Nsg1901
NsS'_align_ylabel_grp'
p1909
g0
(g1755
g2
Ntp1910
Rp1911
(dp1912
g1759
(dp1913
sbsS'transFigure'
p1914
g112
sS'_dpi'
p1915
F100.0
sS'bbox'
p1916
g115
sbsg1724
NsS'height'
p1917
I42
sg1747
Nsg1728
g1729
sg1849
Nsg1731
I01
sg1851
g0
(g584
g2
Ntp1918
Rp1919
(dp1920
g14
I1
sg84
Nsg58
g59
sg41
(dp1921
sbsg1856
(g1802
(g36
S'\x00\x00\x00\x00\x00\x00\x00\x00'
p1922
tp1923
Rp1924
g1802
(g36
S'\x00\x00\x00\x00\x00\x00\x00\x00'
p1925
tp1926
Rp1927
g1802
(g36
S'\x00\x00\x00\x00\x00\x00\xf0?'
p1928
tp1929
Rp1930
I1
tp1931
sg1867
F0.0
sg1734
Nsg1735
Nsg1868
g29
sg1725
Nsg1740
I00
sS'width'
p1932
I42
sg1741
I00
sg1742
(dp1933
sg1744
I00
sg1877
Nsg1771
I01
sg1878
F1.0
sg1748
g1149
sg1745
Nsg1880
g1931
sg1881
Nsg1882
I01
sg1883
Nsg1884
g29
sg1769
Nsg1885
g1931
sg1886
g1887
sS'_patch_transform'
p1934
g0
(g584
g2
Ntp1935
Rp1936
(dp1937
g14
I1
sg84
Nsg58
g59
sg41
(dp1938
sbsg1888
g1889
sg1773
g0
(g1774
g1775
((lp1939
(lp1940
tp1941
tp1942
Rp1943
sg1739
I0
sS'center'
p1944
(I225
I150
tp1945
sg1787
I01
sg1788
Nsg60
g70
sg1897
(NNtp1946
sg1899
g1900
sg1901
Nsg1736
Nsg1902
g7
sg1746
NsS'_path'
p1947
g0
(cmatplotlib.path
Path
p1948
g2
Ntp1949
Rp1950
(dp1951
S'_should_simplify'
p1952
I00
sS'_codes'
p1953
g26
(g27
(I0
tp1954
g29
tp1955
Rp1956
(I1
(I26
tp1957
g33
(S'u1'
p1958
I0
I1
tp1959
Rp1960
(I3
S'|'
p1961
NNNI-1
I-1
I0
tp1962
bI00
S'\x01\x04\x04\x04\x04\x04\x04\x04\x04\x04\x04\x04\x04\x04\x04\x04\x04\x04\x04\x04\x04\x04\x04\x04\x04O'
p1963
tp1964
bsS'_vertices'
p1965
g26
(g27
(I0
tp1966
g29
tp1967
Rp1968
(I1
(I26
I2
tp1969
g36
I00
S'\x00\x00\x00\x00\x00\x00\x00\x00\x00\x00\x00\x00\x00\x00\xf0\xbfr\x0fSl\x16\xf9\xd0?\x00\x00\x00\x00\x00\x00\xf0\xbf\x89\xc9\x15\xf7e\xa0\xe0?\x11\xae\xe8\xd5\xd6\xa0\xec\xbf\xcd;\x7ff\x9e\xa0\xe6?\xcd;\x7ff\x9e\xa0\xe6\xbf\x11\xae\xe8\xd5\xd6\xa0\xec?\x89\xc9\x15\xf7e\xa0\xe0\xbf\x00\x00\x00\x00\x00\x00\xf0?r\x0fSl\x16\xf9\xd0\xbf\x00\x00\x00\x00\x00\x00\xf0?\x00\x00\x00\x00\x00\x00\x00\x00\x00\x00\x00\x00\x00\x00\xf0?r\x0fSl\x16\xf9\xd0?\x11\xae\xe8\xd5\xd6\xa0\xec?\x89\xc9\x15\xf7e\xa0\xe0?\xcd;\x7ff\x9e\xa0\xe6?\xcd;\x7ff\x9e\xa0\xe6?\x89\xc9\x15\xf7e\xa0\xe0?\x11\xae\xe8\xd5\xd6\xa0\xec?r\x0fSl\x16\xf9\xd0?\x00\x00\x00\x00\x00\x00\xf0?\x00\x00\x00\x00\x00\x00\x00\x00\x00\x00\x00\x00\x00\x00\xf0?r\x0fSl\x16\xf9\xd0\xbf\x00\x00\x00\x00\x00\x00\xf0?\x89\xc9\x15\xf7e\xa0\xe0\xbf\x11\xae\xe8\xd5\xd6\xa0\xec?\xcd;\x7ff\x9e\xa0\xe6\xbf\xcd;\x7ff\x9e\xa0\xe6?\x11\xae\xe8\xd5\xd6\xa0\xec\xbf\x89\xc9\x15\xf7e\xa0\xe0?\x00\x00\x00\x00\x00\x00\xf0\xbfr\x0fSl\x16\xf9\xd0?\x00\x00\x00\x00\x00\x00\xf0\xbf\x00\x00\x00\x00\x00\x00\x00\x00\x00\x00\x00\x00\x00\x00\xf0\xbfr\x0fSl\x16\xf9\xd0\xbf\x11\xae\xe8\xd5\xd6\xa0\xec\xbf\x89\xc9\x15\xf7e\xa0\xe0\xbf\xcd;\x7ff\x9e\xa0\xe6\xbf\xcd;\x7ff\x9e\xa0\xe6\xbf\x89\xc9\x15\xf7e\xa0\xe0\xbf\x11\xae\xe8\xd5\xd6\xa0\xec\xbfr\x0fSl\x16\xf9\xd0\xbf\x00\x00\x00\x00\x00\x00\xf0\xbf\x00\x00\x00\x00\x00\x00\x00\x00\x00\x00\x00\x00\x00\x00\xf0\xbf\x00\x00\x00\x00\x00\x00\x00\x00\x00\x00\x00\x00\x00\x00\xf0\xbf'
p1970
tp1971
bsS'_readonly'
p1972
I01
sS'_simplify_threshold'
p1973
F0.1111111111111111
sS'_interpolation_steps'
p1974
I1
sS'_has_nonfinite'
p1975
I00
sbsbasg1731
I01
sS'tables'
p1976
(lp1977
sg1782
(lp1978
g0
(cmatplotlib.patches
Ellipse
p1979
g2
Ntp1980
Rp1981
(dp1982
g1697
g59
sg1711
I01
sg1712
I01
sg1713
g1716
sg1724
Nsg1917
I40
sg1747
Nsg1728
g1729
sg1849
Nsg1731
I01
sg1851
g0
(g584
g2
Ntp1983
Rp1984
(dp1985
g14
I1
sg84
Nsg58
g59
sg41
(dp1986
sbsg1856
g1931
sg1867
F0.0
sg1734
Nsg1735
Nsg1868
g29
sg1725
Nsg1740
I00
sg1932
I80
sg1741
I00
sg1742
(dp1987
sg1744
I00
sg1877
Nsg1771
I01
sg1878
F2.0
sg1748
g1639
sg1745
Nsg1880
g1931
sg1881
Nsg1882
I01
sg1883
Nsg1884
g29
sg1769
Nsg1885
g1931
sg1886
g1887
sg1934
g0
(g139
g2
Ntp1988
Rp1989
(dp1990
g14
I0
sg84
Nsg83
g26
(g27
(I0
tp1991
g29
tp1992
Rp1993
(I1
(I3
I3
tp1994
g36
I00
S'\x00\x00\x00\x00\x00\x00D@\x00\x00\x00\x00\x00\x00\x00\x00\x00\x00\x00\x00\x00\xa0c@\x00\x00\x00\x00\x00\x00\x00\x00\x00\x00\x00\x00\x00\x004@\x00\x00\x00\x00\x00\x00Y@\x00\x00\x00\x00\x00\x00\x00\x00\x00\x00\x00\x00\x00\x00\x00\x00\x00\x00\x00\x00\x00\x00\xf0?'
p1995
tp1996
bsg58
g59
sg41
(dp1997
I140282827568592
NsI140282827568720
Nssbsg1888
g1889
sg1773
g0
(g1774
g1775
((lp1998
(lp1999
tp2000
tp2001
Rp2002
sg1739
I0
sg1944
(I157
I100
tp2003
sg1787
I01
sg1788
Nsg60
g70
sg1897
(NNtp2004
sg1899
g1900
sg1901
Nsg1736
Nsg1902
g7
sg1746
Nsg1947
g1950
sbasS'title'
p2005
g0
(cmatplotlib.text
Text
p2006
g2
Ntp2007
Rp2008
(dp2009
g1697
g59
sg1711
I01
sg1713
g1716
sg1724
NsS'_fontproperties'
p2010
g0
(cmatplotlib.font_manager
FontProperties
p2011
g2
Ntp2012
Rp2013
(dp2014
S'_family'
p2015
(lp2016
Vsans-serif
p2017
asS'_file'
p2018
NsS'_variant'
p2019
S'normal'
p2020
sS'_slant'
p2021
g2020
sS'_size'
p2022
F12.0
sS'_weight'
p2023
g2020
sS'_stretch'
p2024
g2020
sbsg1747
Nsg1728
g1729
sS'_multialignment'
p2025
Nsg1731
I01
sg1734
Nsg165
F1.0
sg166
F0.5
sg1735
Nsg1736
Nsg1725
Nsg1740
I00
sg1741
I00
sg1742
(dp2026
sS'_renderer'
p2027
Nsg1744
I00
sg1902
g7
sg1748
Nsg1901
NsS'_rotation_mode'
p2028
Nsg1745
Nsg1769
Nsg1771
I01
sS'_verticalalignment'
p2029
Vbaseline
p2030
sS'_text'
p2031
g59
sS'_bbox_patch'
p2032
Nsg1773
g0
(g1774
g1775
((lp2033
(lp2034
tp2035
tp2036
Rp2037
sg1739
I0
sS'_rotation'
p2038
Nsg1787
I01
sg1788
NsS'_linespacing'
p2039
F1.2
sg60
g279
sS'_usetex'
p2040
I00
sS'_wrap'
p2041
I00
sg1849
NsS'_color'
p2042
S'k'
p2043
sS'_horizontalalignment'
p2044
Vcenter
p2045
sg1746
NsbsS'_current_image'
p2046
NsS'mouseover_set'
p2047
c__builtin__
set
p2048
((lp2049
tp2050
Rp2051
sg1725
NsS'numRows'
p2052
I1
sS'collections'
p2053
(lp2054
sg1902
g7
sg1742
(dp2055
sg1744
I00
sS'containers'
p2056
(lp2057
sg1741
I00
sg1748
NsS'_get_lines'
p2058
g0
(g1689
g2
Ntp2059
Rp2060
(dp2061
g1693
g7
sg1694
Vplot
p2062
sbsS'_aspect'
p2063
S'equal'
p2064
sS'fmt_xdata'
p2065
Nsg1762
g0
(g1763
g2
Ntp2066
Rp2067
(dp2068
g1767
g1768
sbsg1769
Nsg1885
g1869
sg1771
I01
sg1916
g87
sS'ignore_existing_data_limits'
p2069
I00
sg1735
Nsg1739
I0
sg1787
I00
sS'_left_title'
p2070
g0
(g2006
g2
Ntp2071
Rp2072
(dp2073
g1697
g59
sg1711
I01
sg1713
g1716
sg1724
Nsg2010
g0
(g2011
g2
Ntp2074
Rp2075
(dp2076
g2015
g2016
sg2018
Nsg2019
g2020
sg2021
g2020
sg2022
F12.0
sg2023
g2020
sg2024
g2020
sbsg1747
Nsg1728
g1729
sg2025
Nsg1731
I01
sg1734
Nsg165
F1.0
sg166
F0.0
sg1735
Nsg1736
Nsg1725
Nsg1740
I00
sg1741
I00
sg1742
(dp2077
sg2027
Nsg1744
I00
sg1902
g7
sg1748
Nsg1901
Nsg2028
Nsg1745
Nsg1769
Nsg1771
I01
sg2029
g2030
sg2031
g59
sg2032
Nsg1773
g0
(g1774
g1775
((lp2078
(lp2079
tp2080
tp2081
Rp2082
sg1739
I0
sg2038
Nsg1787
I01
sg1788
Nsg2039
F1.2
sg60
g283
sg2040
I00
sg2041
I00
sg1849
Nsg2042
g2043
sg2044
Vleft
p2083
sg1746
NsbsS'_right_title'
p2084
g0
(g2006
g2
Ntp2085
Rp2086
(dp2087
g1697
g59
sg1711
I01
sg1713
g1716
sg1724
Nsg2010
g0
(g2011
g2
Ntp2088
Rp2089
(dp2090
g2015
g2016
sg2018
Nsg2019
g2020
sg2021
g2020
sg2022
F12.0
sg2023
g2020
sg2024
g2020
sbsg1747
Nsg1728
g1729
sg2025
Nsg1731
I01
sg1734
Nsg165
F1.0
sg166
F1.0
sg1735
Nsg1736
Nsg1725
Nsg1740
I00
sg1741
I00
sg1742
(dp2091
sg2027
Nsg1744
I00
sg1902
g7
sg1748
Nsg1901
Nsg2028
Nsg1745
Nsg1769
Nsg1771
I01
sg2029
g2030
sg2031
g59
sg2032
Nsg1773
g0
(g1774
g1775
((lp2092
(lp2093
tp2094
tp2095
Rp2096
sg1739
I0
sg2038
Nsg1787
I01
sg1788
Nsg2039
F1.2
sg60
g287
sg2040
I00
sg2041
I00
sg1849
Nsg2042
g2043
sg2044
Vright
p2097
sg1746
NsbsS'transScale'
p2098
g63
sg60
NsS'axison'
p2099
I01
sg1843
g0
(g1844
g2
Ntp2100
Rp2101
(dp2102
g1697
g59
sg1848
F1.0
sg1712
I01
sg1713
g1716
sg1711
I01
sg1724
Nsg1747
Nsg1728
g1729
sg1849
Nsg1850
F0.0
sg1731
I01
sg1851
g0
(g584
g2
Ntp2103
Rp2104
(dp2105
g14
I1
sg84
Nsg58
g59
sg41
(dp2106
sbsg1856
(F0.0
F0.0
F0.0
F0.0
tp2107
sg1867
F0.0
sg1734
Nsg1735
Nsg1868
VNone
p2108
sg1725
Nsg1870
F1.0
sg1740
I00
sg1741
I00
sg1742
(dp2109
sg1872
g1318
sg1744
I00
sg1877
Nsg1771
I01
sg1878
F0.0
sg1748
Nsg1879
F1.0
sg1745
Nsg1880
g2107
sg1881
Nsg1882
I01
sg1883
Nsg1884
g1869
sg1769
Nsg1885
g1866
sg1886
g1887
sg1888
g1889
sg1773
g0
(g1774
g1775
((lp2110
(lp2111
tp2112
tp2113
Rp2114
sg1739
I0
sg1895
F1.0
sg1896
F0.0
sg1787
I01
sg1788
Nsg60
g81
sg1897
(NNtp2115
sg1899
g1900
sg1901
Nsg1736
Nsg1902
Nsg1746
NsbsS'viewLim'
p2116
g23
sg1728
g1729
sS'_subplotspec'
p2117
g1799
sS'_adjustable'
p2118
Vbox
p2119
sg1713
g1716
sS'titleOffsetTrans'
p2120
g274
sS'_yaxis_transform'
p2121
g224
sS'_gridOn'
p2122
I00
sg1724
NsS'colNum'
p2123
g1802
(g1805
S'\x00\x00\x00\x00\x00\x00\x00\x00'
p2124
tp2125
Rp2126
sg1747
Nsg1750
(lp2127
sS'_autoscaleXon'
p2128
I00
sS'_xmargin'
p2129
F0.05
sS'rowNum'
p2130
g1802
(g1805
S'\x00\x00\x00\x00\x00\x00\x00\x00'
p2131
tp2132
Rp2133
sS'_position'
p2134
g90
sS'_rasterization_zorder'
p2135
NsS'_cachedRenderer'
p2136
NsS'_navigate'
p2137
I01
sg1734
NsS'_originalPosition'
p2138
g0
(g21
g2
Ntp2139
Rp2140
(dp2141
g14
I1
sg25
g26
(g27
(I0
tp2142
g29
tp2143
Rp2144
(I1
(I2
tp2145
g36
I00
S'\x00\x00\x00\x00\x00\x00\xf0\x7f\x00\x00\x00\x00\x00\x00\xf0\x7f'
p2146
tp2147
bsg41
(dp2148
sg43
g26
(g27
(I0
tp2149
g29
tp2150
Rp2151
(I1
(I2
I2
tp2152
g36
I00
S'\x00\x00\x00\x00\x00\x00\xc0?(\\\x8f\xc2\xf5(\xbc?\xcd\xcc\xcc\xcc\xcc\xcc\xec?)\\\x8f\xc2\xf5(\xec?'
p2153
tp2154
bsg50
g26
(g27
(I0
tp2155
g29
tp2156
Rp2157
(I1
(I2
I2
tp2158
g36
I00
S'\x00\x00\x00\x00\x00\x00\xc0?(\\\x8f\xc2\xf5(\xbc?\xcd\xcc\xcc\xcc\xcc\xcc\xec?)\\\x8f\xc2\xf5(\xec?'
p2159
tp2160
bsg57
I01
sg58
g59
sbsg1736
NsS'_xaxis_transform'
p2161
g163
sg1740
I00
sS'figbox'
p2162
g90
sS'xaxis'
p2163
g0
(cmatplotlib.axis
XAxis
p2164
g2
Ntp2165
Rp2166
(dp2167
g1697
g59
sS'major'
p2168
g0
(cmatplotlib.axis
Ticker
p2169
g2
Ntp2170
Rp2171
(dp2172
S'locator'
p2173
g0
(cmatplotlib.ticker
AutoLocator
p2174
g2
Ntp2175
Rp2176
(dp2177
S'_min_n_ticks'
p2178
I2
sS'_symmetric'
p2179
I00
sS'_nbins'
p2180
Vauto
p2181
sS'_steps'
p2182
g26
(g27
(I0
tp2183
g29
tp2184
Rp2185
(I1
(I5
tp2186
g36
I00
S'\x00\x00\x00\x00\x00\x00\xf0?\x00\x00\x00\x00\x00\x00\x00@\x00\x00\x00\x00\x00\x00\x04@\x00\x00\x00\x00\x00\x00\x14@\x00\x00\x00\x00\x00\x00$@'
p2187
tp2188
bsS'_prune'
p2189
NsS'_extended_steps'
p2190
g26
(g27
(I0
tp2191
g29
tp2192
Rp2193
(I1
(I10
tp2194
g36
I00
S'\x9a\x99\x99\x99\x99\x99\xb9?\x9a\x99\x99\x99\x99\x99\xc9?\x00\x00\x00\x00\x00\x00\xd0?\x00\x00\x00\x00\x00\x00\xe0?\x00\x00\x00\x00\x00\x00\xf0?\x00\x00\x00\x00\x00\x00\x00@\x00\x00\x00\x00\x00\x00\x04@\x00\x00\x00\x00\x00\x00\x14@\x00\x00\x00\x00\x00\x00$@\x00\x00\x00\x00\x00\x004@'
p2195
tp2196
bsS'_integer'
p2197
I00
sS'axis'
p2198
g2166
sbsS'formatter'
p2199
g0
(cmatplotlib.ticker
ScalarFormatter
p2200
g2
Ntp2201
Rp2202
(dp2203
S'_powerlimits'
p2204
(lp2205
I-7
aI7
asS'orderOfMagnitude'
p2206
I0
sS'_useOffset'
p2207
I01
sS'_useLocale'
p2208
I00
sS'format'
p2209
g59
sS'_useMathText'
p2210
I00
sS'_offset_threshold'
p2211
I4
sS'offset'
p2212
I0
sg2040
I00
sS'_scientific'
p2213
I01
sg2198
g2166
sbsbsS'isDefault_label'
p2214
I01
sS'_scale'
p2215
g0
(cmatplotlib.scale
LinearScale
p2216
g2
Ntp2217
Rp2218
sg1713
g1716
sg1711
I01
sS'_gridOnMinor'
p2219
I00
sg1724
Nsg1747
NsS'_smart_bounds'
p2220
I00
sg1728
g1729
sg1731
I01
sg1734
NsS'offsetText'
p2221
g0
(g2006
g2
Ntp2222
Rp2223
(dp2224
g1697
g59
sg1711
I01
sg1713
g1716
sg1724
Nsg2010
g0
(g2011
g2
Ntp2225
Rp2226
(dp2227
g2015
(lp2228
Vsans-serif
p2229
asg2018
Nsg2019
g2020
sg2021
g2020
sg2022
F10.0
sg2023
g2020
sg2024
g2020
sbsg1747
Nsg1728
g1729
sg2025
Nsg1731
I01
sg1734
Nsg165
I0
sg166
I1
sg1735
Nsg1736
Nsg1725
Nsg1740
I00
sg1741
I00
sg1742
(dp2230
sg2027
Nsg1744
I00
sg1902
Nsg1748
Nsg1901
Nsg2028
Nsg1745
Nsg1769
Nsg1771
I01
sg2029
Vtop
p2231
sg2031
S''
p2232
sg2032
Nsg1773
g0
(g1774
g1775
((lp2233
(lp2234
tp2235
tp2236
Rp2237
sg1739
I0
sg2038
Nsg1787
I01
sg1788
Nsg2039
F1.2
sg60
g809
sg2040
I00
sg2041
I00
sg1849
Nsg2042
g2043
sg2044
Vright
p2238
sg1746
Nsbsg1735
Nsg1736
Nsg1725
NsS'label'
p2239
g0
(g2006
g2
Ntp2240
Rp2241
(dp2242
g1697
g59
sg1711
I01
sg1713
g1716
sg1724
Nsg2010
g0
(g2011
g2
Ntp2243
Rp2244
(dp2245
g2015
(lp2246
Vsans-serif
p2247
asg2018
Nsg2019
g2020
sg2021
g2020
sg2022
F10.0
sg2023
g2020
sg2024
g2020
sbsg1747
Nsg1728
g1729
sg2025
Nsg1731
I01
sg1734
Nsg165
I0
sg166
F0.5
sg1735
Nsg1736
Nsg1725
Nsg1740
I00
sg1741
I00
sg1742
(dp2248
sg2027
Nsg1744
I00
sg1902
Nsg1748
Nsg1901
Nsg2028
Nsg1745
Nsg1769
Nsg1771
I01
sg2029
Vtop
p2249
sg2031
g59
sg2032
Nsg1773
g0
(g1774
g1775
((lp2250
(lp2251
tp2252
tp2253
Rp2254
sg1739
I0
sg2038
Nsg1787
I01
sg1788
Nsg2039
F1.2
sg60
g661
sg2040
I00
sg2041
I00
sg1849
Nsg2042
g2043
sg2044
Vcenter
p2255
sg1746
Nsbsg1740
I00
sS'isDefault_majfmt'
p2256
I01
sg1741
I00
sg1742
(dp2257
sS'units'
p2258
Nsg1744
I00
sS'minor'
p2259
g0
(g2169
g2
Ntp2260
Rp2261
(dp2262
g2173
g0
(cmatplotlib.ticker
NullLocator
p2263
g2
Ntp2264
Rp2265
(dp2266
g2198
g2166
sbsg2199
g0
(cmatplotlib.ticker
NullFormatter
p2267
g2
Ntp2268
Rp2269
(dp2270
g2198
g2166
sbsbsg1902
g7
sS'_major_tick_kw'
p2271
(dp2272
Vtick1On
p2273
I01
sVlabel1On
p2274
I01
sVtick2On
p2275
I00
sS'gridOn'
p2276
I00
sVlabel2On
p2277
I00
ssS'isDefault_minloc'
p2278
I01
sg1748
g1429
sg1745
NsS'_gridOnMajor'
p2279
I00
sS'labelpad'
p2280
F4.0
sS'majorTicks'
p2281
(lp2282
g0
(cmatplotlib.axis
XTick
p2283
g2
Ntp2284
Rp2285
(dp2286
g1697
g59
sg1848
F0.8
sg1713
g1716
sS'tick1On'
p2287
I01
sg1711
I01
sg1787
I00
sg1724
Nsg1739
I0
sg1747
NsS'_pad'
p2288
F7.0
sS'_labelcolor'
p2289
g2043
sg2276
I00
sg2022
F3.5
sg1728
g1729
sS'_tickdir'
p2290
S'out'
p2291
sg2239
g0
(g2006
g2
Ntp2292
Rp2293
(dp2294
g1697
g59
sg1711
I01
sg1713
g1716
sg1724
Nsg2010
g0
(g2011
g2
Ntp2295
Rp2296
(dp2297
g2015
(lp2298
Vsans-serif
p2299
asg2018
Nsg2019
g2020
sg2021
g2020
sg2022
F10.0
sg2023
g2020
sg2024
g2020
sbsg1747
Nsg1728
g1729
sg2025
Nsg1731
I01
sg1734
Nsg165
I0
sg166
I0
sg1735
Nsg1736
Nsg1725
Nsg1740
I00
sg1741
I00
sg1742
(dp2300
sg2027
Nsg1744
I00
sg1902
Nsg1748
Nsg1901
Nsg2028
Nsg1745
Nsg1769
Nsg1771
I01
sg2029
Vtop
p2301
sg2031
g2232
sg2032
Nsg1773
g0
(g1774
g1775
((lp2302
(lp2303
tp2304
tp2305
Rp2306
sg1739
I0
sg2038
Nsg1787
I01
sg1788
Nsg2039
F1.2
sg60
g206
sg2040
I00
sg2041
I00
sg1849
Nsg2042
g2043
sg2044
g1944
sg1746
Nsbsg1731
I01
sg1734
NsS'label2On'
p2307
I00
sg1735
Nsg1736
NsS'_grid_color'
p2308
S'#b0b0b0'
p2309
sg1725
NsS'tick2On'
p2310
I00
sg1740
I00
sS'_grid_kw'
p2311
(dp2312
sg1741
I00
sg1742
(dp2313
sS'_tickmarkers'
p2314
(I3
I2
tp2315
sg1744
I00
sS'_zorder'
p2316
F2.01
sg1902
g7
sS'label1On'
p2317
I01
sg1748
g345
sg1901
NsS'label1'
p2318
g2293
sS'label2'
p2319
g0
(g2006
g2
Ntp2320
Rp2321
(dp2322
g1697
g59
sg1711
I01
sg1713
g1716
sg1724
Nsg2010
g0
(g2011
g2
Ntp2323
Rp2324
(dp2325
g2015
(lp2326
Vsans-serif
p2327
asg2018
Nsg2019
g2020
sg2021
g2020
sg2022
F10.0
sg2023
g2020
sg2024
g2020
sbsg1747
Nsg1728
g1729
sg2025
Nsg1731
I01
sg1734
Nsg165
I1
sg166
I0
sg1735
Nsg1736
Nsg1725
Nsg1740
I00
sg1741
I00
sg1742
(dp2328
sg2027
Nsg1744
I00
sg1902
Nsg1748
Nsg1901
Nsg2028
Nsg1745
Nsg1769
Nsg1771
I01
sg2029
Vbottom
p2329
sg2031
g2232
sg2032
Nsg1773
g0
(g1774
g1775
((lp2330
(lp2331
tp2332
tp2333
Rp2334
sg1739
I0
sg2038
Nsg1787
I01
sg1788
Nsg2039
F1.2
sg60
g170
sg2040
I00
sg2041
I00
sg1849
Nsg2042
g2043
sg2044
g1944
sg1746
Nsbsg1769
NsS'_loc'
p2335
I0
sg1771
I01
sg1773
g0
(g1774
g1775
((lp2336
(lp2337
tp2338
tp2339
Rp2340
sS'_base_pad'
p2341
F3.5
sS'_grid_linewidth'
p2342
F0.8
sS'_grid_alpha'
p2343
F1.0
sS'gridline'
p2344
g0
(cmatplotlib.lines
Line2D
p2345
g2
Ntp2346
Rp2347
(dp2348
g1697
g59
sg1711
I01
sS'_solidcapstyle'
p2349
S'projecting'
p2350
sg1713
g1716
sS'_dashcapstyle'
p2351
S'butt'
p2352
sS'_linestyles'
p2353
Nsg1724
Nsg1747
Nsg1728
g1729
sS'_solidjoinstyle'
p2354
S'round'
p2355
sg1731
I01
sS'_x_filled'
p2356
Nsg1734
Nsg165
g26
(g27
(I0
tp2357
g29
tp2358
Rp2359
(I1
(I2
tp2360
g36
I00
S'\x00\x00\x00\x00\x00\x00\x00\x00\x00\x00\x00\x00\x00\x00\xf0?'
p2361
tp2362
bsg166
g26
(g27
(I0
tp2363
g29
tp2364
Rp2365
(I1
(I2
tp2366
g36
I00
S'\x00\x00\x00\x00\x00\x00\x00\x00\x00\x00\x00\x00\x00\x00\x00\x00'
p2367
tp2368
bsg1735
Nsg1736
Nsg1725
NsS'_xorig'
p2369
(F0.0
F0.0
tp2370
sg1740
I00
sS'_markevery'
p2371
Nsg1741
I00
sg1742
(dp2372
sS'verticalOffset'
p2373
Nsg1744
I00
sS'_subslice'
p2374
I00
sg1902
NsS'_transformed_path'
p2375
NsS'_markeredgewidth'
p2376
F1.0
sS'_markerfacecolor'
p2377
Vauto
p2378
sS'_dashSeq'
p2379
Nsg2042
g2309
sS'_marker'
p2380
g0
(cmatplotlib.markers
MarkerStyle
p2381
g2
Ntp2382
Rp2383
(dp2384
g2380
S'None'
p2385
sS'_alt_path'
p2386
NsS'_snap_threshold'
p2387
Nsg60
g0
(g584
g2
Ntp2388
Rp2389
(dp2390
g14
I1
sg84
Nsg58
g59
sg41
(dp2391
sbsS'_filled'
p2392
I00
sS'_fillstyle'
p2393
S'full'
p2394
sS'_alt_transform'
p2395
Nsg1899
Vbutt
p2396
sg1886
Vround
p2397
sg1947
g0
(g1948
g2
Ntp2398
Rp2399
(dp2400
g1952
I00
sg1953
Nsg1965
g26
(g27
(I0
tp2401
g29
tp2402
Rp2403
(I1
(I0
I2
tp2404
g36
I00
g2232
tp2405
bsg1972
I00
sg1973
F0.1111111111111111
sg1974
I1
sg1975
I00
sbsbsg1745
NsS'_markerfacecoloralt'
p2406
Vnone
p2407
sg1882
I01
sS'_markeredgecolor'
p2408
Vauto
p2409
sg1769
NsS'_markersize'
p2410
F0.0
sg1771
I01
sS'_xy'
p2411
g26
(g27
(I0
tp2412
g29
tp2413
Rp2414
(I1
(I2
I2
tp2415
g36
I00
S'\x00\x00\x00\x00\x00\x00\x00\x00\x00\x00\x00\x00\x00\x00\x00\x00\x00\x00\x00\x00\x00\x00\x00\x00\x00\x00\x00\x00\x00\x00\xf0?'
p2416
tp2417
bsg1888
S'-'
p2418
sg1773
g0
(g1774
g1775
((lp2419
(lp2420
tp2421
tp2422
Rp2423
sg1739
I0
sS'_drawstyle'
p2424
Vdefault
p2425
sS'ind_offset'
p2426
I0
sS'_us_dashOffset'
p2427
NsS'pickradius'
p2428
I5
sg1787
I01
sg1788
F1.0
sS'_dashjoinstyle'
p2429
S'round'
p2430
sS'_invalidx'
p2431
I00
sg60
g163
sS'_dashOffset'
p2432
NsS'_us_dashSeq'
p2433
NsS'_invalidy'
p2434
I00
sg1849
Nsg1901
NsS'_yorig'
p2435
(I0
F1.0
tp2436
sg1748
g555
sg1878
F0.8
sg1746
Nsg1947
g0
(g1948
g2
Ntp2437
Rp2438
(dp2439
g1952
I00
sg1953
Nsg1965
g26
(g27
(I0
tp2440
g29
tp2441
Rp2442
(I1
(I2
I2
tp2443
g36
I01
S'\x00\x00\x00\x00\x00\x00\x00\x00\x00\x00\x00\x00\x00\x00\x00\x00\x00\x00\x00\x00\x00\x00\x00\x00\x00\x00\x00\x00\x00\x00\xf0?'
p2444
tp2445
bsg1972
I00
sg1973
F0.1111111111111111
sg1974
I180
sg1975
I00
sbsbsg1788
Nsg1745
NsS'tick2line'
p2446
g0
(g2345
g2
Ntp2447
Rp2448
(dp2449
g1697
g59
sg2351
S'butt'
p2450
sg2353
Nsg1731
I01
sg2356
Nsg2426
I0
sg165
Nsg166
Nsg1735
Nsg1725
Nsg1741
I00
sg1742
(dp2451
sg1744
I00
sg1902
Nsg2376
F0.8
sg2379
Nsg2406
g2407
sg2408
g2409
sg1769
Nsg1771
I01
sg2369
(I0
tp2452
sg1739
I0
sg1787
I01
sg2434
I01
sg2431
I01
sg60
g163
sg2433
NsS'zorder'
p2453
F2.01
sg2042
g2043
sg2428
I5
sg1713
g1716
sg2373
Nsg1724
Nsg1747
Nsg1728
g1729
sg2354
S'round'
p2454
sg1734
Nsg1736
Nsg1740
I00
sg2371
Nsg1746
Nsg2375
Nsg2380
g0
(g2381
g2
Ntp2455
Rp2456
(dp2457
g2380
I2
sg2386
Nsg2387
F1.0
sg60
g0
(g139
g2
Ntp2458
Rp2459
(dp2460
g14
I2
sg84
Nsg83
g26
(g27
(I0
tp2461
g29
tp2462
Rp2463
(I1
(I3
I3
tp2464
g36
I00
S'\x00\x00\x00\x00\x00\x00\xf0?\x00\x00\x00\x00\x00\x00\x00\x00\x00\x00\x00\x00\x00\x00\x00\x00\x00\x00\x00\x00\x00\x00\x00\x00\x00\x00\x00\x00\x00\x00\xf0?\x00\x00\x00\x00\x00\x00\x00\x00\x00\x00\x00\x00\x00\x00\x00\x00\x00\x00\x00\x00\x00\x00\x00\x00\x00\x00\x00\x00\x00\x00\xf0?'
p2465
tp2466
bsg58
g59
sg41
(dp2467
sbsg2392
I00
sg2393
g2394
sg2395
Nsg1899
g2396
sg1886
g2397
sg1947
g0
(g1948
g2
Ntp2468
Rp2469
(dp2470
g1952
I00
sg1953
Nsg1965
g26
(g27
(I0
tp2471
g29
tp2472
Rp2473
(I1
(I2
I2
tp2474
g36
I00
S'\x00\x00\x00\x00\x00\x00\x00\x80\x00\x00\x00\x00\x00\x00\x00\x00\x00\x00\x00\x00\x00\x00\x00\x80\x00\x00\x00\x00\x00\x00\xf0?'
p2475
tp2476
bsg1972
I00
sg1973
F0.1111111111111111
sg1974
I1
sg1975
I00
sbsbsg2377
g2378
sg1748
Nsg1745
Nsg1882
I01
sg2411
Nsg1888
VNone
p2477
sg1773
g0
(g1774
g1775
((lp2478
(lp2479
tp2480
tp2481
Rp2482
sg2374
I00
sg2424
g2425
sg2349
S'projecting'
p2483
sg2427
Nsg1788
Nsg2429
S'round'
p2484
sg2410
F3.5
sg1711
I01
sg2432
Nsg1849
Nsg1901
Nsg2435
(I1
tp2485
sg1878
F1.5
sg1947
Nsbsg60
NsS'_labelsize'
p2486
S'medium'
p2487
sS'_name'
p2488
Vxtick
p2489
sS'_grid_linestyle'
p2490
g2418
sS'_labelrotation'
p2491
(Vdefault
p2492
I0
tp2493
sg1849
Nsg2042
g2043
sS'tick1line'
p2494
g0
(g2345
g2
Ntp2495
Rp2496
(dp2497
g1697
g59
sg2351
S'butt'
p2498
sg2353
Nsg1731
I01
sg2356
Nsg2426
I0
sg165
Nsg166
Nsg1735
Nsg1725
Nsg1741
I00
sg1742
(dp2499
sg1744
I00
sg1902
Nsg2376
F0.8
sg2379
Nsg2406
g2407
sg2408
g2409
sg1769
Nsg1771
I01
sg2369
(I0
tp2500
sg1739
I0
sg1787
I01
sg2434
I01
sg2431
I01
sg60
g163
sg2433
Nsg2453
F2.01
sg2042
g2043
sg2428
I5
sg1713
g1716
sg2373
Nsg1724
Nsg1747
Nsg1728
g1729
sg2354
S'round'
p2501
sg1734
Nsg1736
Nsg1740
I00
sg2371
Nsg1746
Nsg2375
Nsg2380
g0
(g2381
g2
Ntp2502
Rp2503
(dp2504
g2380
I3
sg2386
Nsg2387
F1.0
sg60
g0
(g139
g2
Ntp2505
Rp2506
(dp2507
g14
I2
sg84
Nsg83
g26
(g27
(I0
tp2508
g29
tp2509
Rp2510
(I1
(I3
I3
tp2511
g36
I00
S'\x00\x00\x00\x00\x00\x00\xf0?\x00\x00\x00\x00\x00\x00\x00\x00\x00\x00\x00\x00\x00\x00\x00\x00\x00\x00\x00\x00\x00\x00\x00\x00\x00\x00\x00\x00\x00\x00\xf0\xbf\x00\x00\x00\x00\x00\x00\x00\x00\x00\x00\x00\x00\x00\x00\x00\x00\x00\x00\x00\x00\x00\x00\x00\x00\x00\x00\x00\x00\x00\x00\xf0?'
p2512
tp2513
bsg58
g59
sg41
(dp2514
sbsg2392
I00
sg2393
g2394
sg2395
Nsg1899
g2396
sg1886
g2397
sg1947
g2469
sbsg2377
g2378
sg1748
Nsg1745
Nsg1882
I01
sg2411
Nsg1888
VNone
p2515
sg1773
g0
(g1774
g1775
((lp2516
(lp2517
tp2518
tp2519
Rp2520
sg2374
I00
sg2424
g2425
sg2349
S'projecting'
p2521
sg2427
Nsg1788
Nsg2429
S'round'
p2522
sg2410
F3.5
sg1711
I01
sg2432
Nsg1849
Nsg1901
Nsg2435
(I0
tp2523
sg1878
F1.5
sg1947
Nsbsg1746
Nsbag0
(g2283
g2
Ntp2524
Rp2525
(dp2526
g1697
g59
sg1848
F0.8
sg1713
g1716
sg2287
I01
sg1711
I01
sg1787
I00
sg1724
Nsg1739
I0
sg1747
Nsg2288
F7.0
sg2289
g2043
sg2276
I00
sg2022
F3.5
sg1728
g1729
sg2290
g2291
sg2239
g0
(g2006
g2
Ntp2527
Rp2528
(dp2529
g1697
g59
sg1711
I01
sg1713
g1716
sg1724
Nsg2010
g0
(g2011
g2
Ntp2530
Rp2531
(dp2532
g2015
(lp2533
Vsans-serif
p2534
asg2018
Nsg2019
g2020
sg2021
g2020
sg2022
F10.0
sg2023
g2020
sg2024
g2020
sbsg1747
Nsg1728
g1729
sg2025
Nsg1731
I01
sg1734
Nsg165
I0
sg166
I0
sg1735
Nsg1736
Nsg1725
Nsg1740
I00
sg1741
I00
sg1742
(dp2535
sg2027
Nsg1744
I00
sg1902
Nsg1748
Nsg1901
Nsg2028
Nsg1745
Nsg1769
Nsg1771
I01
sg2029
g2301
sg2031
g2232
sg2032
Nsg1773
g0
(g1774
g1775
((lp2536
(lp2537
tp2538
tp2539
Rp2540
sg1739
I0
sg2038
Nsg1787
I01
sg1788
Nsg2039
F1.2
sg60
g197
sg2040
I00
sg2041
I00
sg1849
Nsg2042
g2043
sg2044
g1944
sg1746
Nsbsg1731
I01
sg1734
Nsg2307
I00
sg1735
Nsg1736
Nsg2308
g2309
sg1725
Nsg2310
I00
sg1740
I00
sg2311
(dp2541
sg1741
I00
sg1742
(dp2542
sg2314
(I3
I2
tp2543
sg1744
I00
sg2316
F2.01
sg1902
g7
sg2317
I01
sg1748
g415
sg1901
Nsg2318
g2528
sg2319
g0
(g2006
g2
Ntp2544
Rp2545
(dp2546
g1697
g59
sg1711
I01
sg1713
g1716
sg1724
Nsg2010
g0
(g2011
g2
Ntp2547
Rp2548
(dp2549
g2015
(lp2550
Vsans-serif
p2551
asg2018
Nsg2019
g2020
sg2021
g2020
sg2022
F10.0
sg2023
g2020
sg2024
g2020
sbsg1747
Nsg1728
g1729
sg2025
Nsg1731
I01
sg1734
Nsg165
I1
sg166
I0
sg1735
Nsg1736
Nsg1725
Nsg1740
I00
sg1741
I00
sg1742
(dp2552
sg2027
Nsg1744
I00
sg1902
Nsg1748
Nsg1901
Nsg2028
Nsg1745
Nsg1769
Nsg1771
I01
sg2029
g2329
sg2031
g2232
sg2032
Nsg1773
g0
(g1774
g1775
((lp2553
(lp2554
tp2555
tp2556
Rp2557
sg1739
I0
sg2038
Nsg1787
I01
sg1788
Nsg2039
F1.2
sg60
g188
sg2040
I00
sg2041
I00
sg1849
Nsg2042
g2043
sg2044
g1944
sg1746
Nsbsg1769
Nsg2335
I0
sg1771
I01
sg1773
g0
(g1774
g1775
((lp2558
(lp2559
tp2560
tp2561
Rp2562
sg2341
F3.5
sg2342
F0.8
sg2343
F1.0
sg2344
g0
(g2345
g2
Ntp2563
Rp2564
(dp2565
g1697
g59
sg1711
I01
sg2349
S'projecting'
p2566
sg1713
g1716
sg2351
S'butt'
p2567
sg2353
Nsg1724
Nsg1747
Nsg1728
g1729
sg2354
S'round'
p2568
sg1731
I01
sg2356
Nsg1734
Nsg165
g26
(g27
(I0
tp2569
g29
tp2570
Rp2571
(I1
(I2
tp2572
g36
I00
S'\x00\x00\x00\x00\x00\x00\x00\x00\x00\x00\x00\x00\x00\x00\xf0?'
p2573
tp2574
bsg166
g26
(g27
(I0
tp2575
g29
tp2576
Rp2577
(I1
(I2
tp2578
g36
I00
S'\x00\x00\x00\x00\x00\x00\x00\x00\x00\x00\x00\x00\x00\x00\x00\x00'
p2579
tp2580
bsg1735
Nsg1736
Nsg1725
Nsg2369
g2370
sg1740
I00
sg2371
Nsg1741
I00
sg1742
(dp2581
sg2373
Nsg1744
I00
sg2374
I00
sg1902
Nsg2375
Nsg2376
F1.0
sg2377
g2378
sg2379
Nsg2042
g2309
sg2380
g0
(g2381
g2
Ntp2582
Rp2583
(dp2584
g2380
g2385
sg2386
Nsg2387
Nsg60
g0
(g584
g2
Ntp2585
Rp2586
(dp2587
g14
I1
sg84
Nsg58
g59
sg41
(dp2588
sbsg2392
I00
sg2393
g2394
sg2395
Nsg1899
g2396
sg1886
g2397
sg1947
g2399
sbsg1745
Nsg2406
g2407
sg1882
I01
sg2408
g2409
sg1769
Nsg2410
F0.0
sg1771
I01
sg2411
g26
(g27
(I0
tp2589
g29
tp2590
Rp2591
(I1
(I2
I2
tp2592
g36
I00
S'\x00\x00\x00\x00\x00\x00\x00\x00\x00\x00\x00\x00\x00\x00\x00\x00\x00\x00\x00\x00\x00\x00\x00\x00\x00\x00\x00\x00\x00\x00\xf0?'
p2593
tp2594
bsg1888
g2418
sg1773
g0
(g1774
g1775
((lp2595
(lp2596
tp2597
tp2598
Rp2599
sg1739
I0
sg2424
g2425
sg2426
I0
sg2427
Nsg2428
I5
sg1787
I01
sg1788
F1.0
sg2429
S'round'
p2600
sg2431
I00
sg60
g163
sg2432
Nsg2433
Nsg2434
I00
sg1849
Nsg1901
Nsg2435
g2436
sg1748
g861
sg1878
F0.8
sg1746
Nsg1947
g0
(g1948
g2
Ntp2601
Rp2602
(dp2603
g1952
I00
sg1953
Nsg1965
g26
(g27
(I0
tp2604
g29
tp2605
Rp2606
(I1
(I2
I2
tp2607
g36
I01
S'\x00\x00\x00\x00\x00\x00\x00\x00\x00\x00\x00\x00\x00\x00\x00\x00\x00\x00\x00\x00\x00\x00\x00\x00\x00\x00\x00\x00\x00\x00\xf0?'
p2608
tp2609
bsg1972
I00
sg1973
F0.1111111111111111
sg1974
I180
sg1975
I00
sbsbsg1788
Nsg1745
Nsg2446
g0
(g2345
g2
Ntp2610
Rp2611
(dp2612
g1697
g59
sg2351
S'butt'
p2613
sg2353
Nsg1731
I01
sg2356
Nsg2426
I0
sg165
Nsg166
Nsg1735
Nsg1725
Nsg1741
I00
sg1742
(dp2614
sg1744
I00
sg1902
Nsg2376
F0.8
sg2379
Nsg2406
g2407
sg2408
g2409
sg1769
Nsg1771
I01
sg2369
(I0
tp2615
sg1739
I0
sg1787
I01
sg2434
I01
sg2431
I01
sg60
g163
sg2433
Nsg2453
F2.01
sg2042
g2043
sg2428
I5
sg1713
g1716
sg2373
Nsg1724
Nsg1747
Nsg1728
g1729
sg2354
S'round'
p2616
sg1734
Nsg1736
Nsg1740
I00
sg2371
Nsg1746
Nsg2375
Nsg2380
g0
(g2381
g2
Ntp2617
Rp2618
(dp2619
g2380
I2
sg2386
Nsg2387
F1.0
sg60
g0
(g139
g2
Ntp2620
Rp2621
(dp2622
g14
I2
sg84
Nsg83
g26
(g27
(I0
tp2623
g29
tp2624
Rp2625
(I1
(I3
I3
tp2626
g36
I00
S'\x00\x00\x00\x00\x00\x00\xf0?\x00\x00\x00\x00\x00\x00\x00\x00\x00\x00\x00\x00\x00\x00\x00\x00\x00\x00\x00\x00\x00\x00\x00\x00\x00\x00\x00\x00\x00\x00\xf0?\x00\x00\x00\x00\x00\x00\x00\x00\x00\x00\x00\x00\x00\x00\x00\x00\x00\x00\x00\x00\x00\x00\x00\x00\x00\x00\x00\x00\x00\x00\xf0?'
p2627
tp2628
bsg58
g59
sg41
(dp2629
sbsg2392
I00
sg2393
g2394
sg2395
Nsg1899
g2396
sg1886
g2397
sg1947
g2469
sbsg2377
g2378
sg1748
Nsg1745
Nsg1882
I01
sg2411
Nsg1888
g2477
sg1773
g0
(g1774
g1775
((lp2630
(lp2631
tp2632
tp2633
Rp2634
sg2374
I00
sg2424
g2425
sg2349
S'projecting'
p2635
sg2427
Nsg1788
Nsg2429
S'round'
p2636
sg2410
F3.5
sg1711
I01
sg2432
Nsg1849
Nsg1901
Nsg2435
g2485
sg1878
F1.5
sg1947
Nsbsg60
Nsg2486
g2487
sg2488
g2489
sg2490
g2418
sg2491
(g2492
I0
tp2637
sg1849
Nsg2042
g2043
sg2494
g0
(g2345
g2
Ntp2638
Rp2639
(dp2640
g1697
g59
sg2351
S'butt'
p2641
sg2353
Nsg1731
I01
sg2356
Nsg2426
I0
sg165
Nsg166
Nsg1735
Nsg1725
Nsg1741
I00
sg1742
(dp2642
sg1744
I00
sg1902
Nsg2376
F0.8
sg2379
Nsg2406
g2407
sg2408
g2409
sg1769
Nsg1771
I01
sg2369
(I0
tp2643
sg1739
I0
sg1787
I01
sg2434
I01
sg2431
I01
sg60
g163
sg2433
Nsg2453
F2.01
sg2042
g2043
sg2428
I5
sg1713
g1716
sg2373
Nsg1724
Nsg1747
Nsg1728
g1729
sg2354
S'round'
p2644
sg1734
Nsg1736
Nsg1740
I00
sg2371
Nsg1746
Nsg2375
Nsg2380
g0
(g2381
g2
Ntp2645
Rp2646
(dp2647
g2380
I3
sg2386
Nsg2387
F1.0
sg60
g0
(g139
g2
Ntp2648
Rp2649
(dp2650
g14
I2
sg84
Nsg83
g26
(g27
(I0
tp2651
g29
tp2652
Rp2653
(I1
(I3
I3
tp2654
g36
I00
S'\x00\x00\x00\x00\x00\x00\xf0?\x00\x00\x00\x00\x00\x00\x00\x00\x00\x00\x00\x00\x00\x00\x00\x00\x00\x00\x00\x00\x00\x00\x00\x00\x00\x00\x00\x00\x00\x00\xf0\xbf\x00\x00\x00\x00\x00\x00\x00\x00\x00\x00\x00\x00\x00\x00\x00\x00\x00\x00\x00\x00\x00\x00\x00\x00\x00\x00\x00\x00\x00\x00\xf0?'
p2655
tp2656
bsg58
g59
sg41
(dp2657
sbsg2392
I00
sg2393
g2394
sg2395
Nsg1899
g2396
sg1886
g2397
sg1947
g2469
sbsg2377
g2378
sg1748
Nsg1745
Nsg1882
I01
sg2411
Nsg1888
g2515
sg1773
g0
(g1774
g1775
((lp2658
(lp2659
tp2660
tp2661
Rp2662
sg2374
I00
sg2424
g2425
sg2349
S'projecting'
p2663
sg2427
Nsg1788
Nsg2429
S'round'
p2664
sg2410
F3.5
sg1711
I01
sg2432
Nsg1849
Nsg1901
Nsg2435
g2523
sg1878
F1.5
sg1947
Nsbsg1746
NsbasS'isDefault_majloc'
p2665
I01
sg1762
g0
(g1763
g2
Ntp2666
Rp2667
(dp2668
g1767
g1768
sbsg1769
Nsg1771
I01
sS'_autolabelpos'
p2669
I01
sg1773
g0
(g1774
g1775
((lp2670
(lp2671
tp2672
tp2673
Rp2674
sg1739
I0
sS'converter'
p2675
Nsg1787
I00
sg1788
NsS'offset_text_position'
p2676
Vbottom
p2677
sg60
NsS'label_position'
p2678
Vbottom
p2679
sg1849
Nsg1901
Nsg2428
I15
sS'minorTicks'
p2680
(lp2681
g0
(g2283
g2
Ntp2682
Rp2683
(dp2684
g1697
g59
sg1848
F0.6
sg1713
g1716
sg2287
I01
sg1711
I01
sg1787
I00
sg1724
Nsg1739
I0
sg1747
Nsg2288
F5.4
sg2289
g2043
sg2276
I00
sg2022
F2.0
sg1728
g1729
sg2290
g2291
sg2239
g0
(g2006
g2
Ntp2685
Rp2686
(dp2687
g1697
g59
sg1711
I01
sg1713
g1716
sg1724
Nsg2010
g0
(g2011
g2
Ntp2688
Rp2689
(dp2690
g2015
(lp2691
Vsans-serif
p2692
asg2018
Nsg2019
g2020
sg2021
g2020
sg2022
F10.0
sg2023
g2020
sg2024
g2020
sbsg1747
Nsg1728
g1729
sg2025
Nsg1731
I01
sg1734
Nsg165
I0
sg166
I0
sg1735
Nsg1736
Nsg1725
Nsg1740
I00
sg1741
I00
sg1742
(dp2693
sg2027
Nsg1744
I00
sg1902
Nsg1748
Nsg1901
Nsg2028
Nsg1745
Nsg1769
Nsg1771
I01
sg2029
g2301
sg2031
g2232
sg2032
Nsg1773
g0
(g1774
g1775
((lp2694
(lp2695
tp2696
tp2697
Rp2698
sg1739
I0
sg2038
Nsg1787
I01
sg1788
Nsg2039
F1.2
sg60
g159
sg2040
I00
sg2041
I00
sg1849
Nsg2042
g2043
sg2044
g1944
sg1746
Nsbsg1731
I01
sg1734
Nsg2307
I00
sg1735
Nsg1736
Nsg2308
g2309
sg1725
Nsg2310
I00
sg1740
I00
sg2311
(dp2699
sg1741
I00
sg1742
(dp2700
sg2314
(I3
I2
tp2701
sg1744
I00
sg2316
I2
sg1902
g7
sg2317
I01
sg1748
g1569
sg1901
Nsg2318
g2686
sg2319
g0
(g2006
g2
Ntp2702
Rp2703
(dp2704
g1697
g59
sg1711
I01
sg1713
g1716
sg1724
Nsg2010
g0
(g2011
g2
Ntp2705
Rp2706
(dp2707
g2015
(lp2708
Vsans-serif
p2709
asg2018
Nsg2019
g2020
sg2021
g2020
sg2022
F10.0
sg2023
g2020
sg2024
g2020
sbsg1747
Nsg1728
g1729
sg2025
Nsg1731
I01
sg1734
Nsg165
I1
sg166
I0
sg1735
Nsg1736
Nsg1725
Nsg1740
I00
sg1741
I00
sg1742
(dp2710
sg2027
Nsg1744
I00
sg1902
Nsg1748
Nsg1901
Nsg2028
Nsg1745
Nsg1769
Nsg1771
I01
sg2029
g2329
sg2031
g2232
sg2032
Nsg1773
g0
(g1774
g1775
((lp2711
(lp2712
tp2713
tp2714
Rp2715
sg1739
I0
sg2038
Nsg1787
I01
sg1788
Nsg2039
F1.2
sg60
g179
sg2040
I00
sg2041
I00
sg1849
Nsg2042
g2043
sg2044
g1944
sg1746
Nsbsg1769
Nsg2335
I0
sg1771
I01
sg1773
g0
(g1774
g1775
((lp2716
(lp2717
tp2718
tp2719
Rp2720
sg2341
F3.4
sg2342
F0.8
sg2343
F1.0
sg2344
g0
(g2345
g2
Ntp2721
Rp2722
(dp2723
g1697
g59
sg1711
I01
sg2349
S'projecting'
p2724
sg1713
g1716
sg2351
S'butt'
p2725
sg2353
Nsg1724
Nsg1747
Nsg1728
g1729
sg2354
S'round'
p2726
sg1731
I01
sg2356
Nsg1734
Nsg165
g26
(g27
(I0
tp2727
g29
tp2728
Rp2729
(I1
(I2
tp2730
g36
I00
S'\x00\x00\x00\x00\x00\x00\x00\x00\x00\x00\x00\x00\x00\x00\xf0?'
p2731
tp2732
bsg166
g26
(g27
(I0
tp2733
g29
tp2734
Rp2735
(I1
(I2
tp2736
g36
I00
S'\x00\x00\x00\x00\x00\x00\x00\x00\x00\x00\x00\x00\x00\x00\x00\x00'
p2737
tp2738
bsg1735
Nsg1736
Nsg1725
Nsg2369
g2370
sg1740
I00
sg2371
Nsg1741
I00
sg1742
(dp2739
sg2373
Nsg1744
I00
sg2374
I00
sg1902
Nsg2375
Nsg2376
F1.0
sg2377
g2378
sg2379
Nsg2042
g2309
sg2380
g0
(g2381
g2
Ntp2740
Rp2741
(dp2742
g2380
g2385
sg2386
Nsg2387
Nsg60
g0
(g584
g2
Ntp2743
Rp2744
(dp2745
g14
I1
sg84
Nsg58
g59
sg41
(dp2746
sbsg2392
I00
sg2393
g2394
sg2395
Nsg1899
g2396
sg1886
g2397
sg1947
g2399
sbsg1745
Nsg2406
g2407
sg1882
I01
sg2408
g2409
sg1769
Nsg2410
F0.0
sg1771
I01
sg2411
g26
(g27
(I0
tp2747
g29
tp2748
Rp2749
(I1
(I2
I2
tp2750
g36
I00
S'\x00\x00\x00\x00\x00\x00\x00\x00\x00\x00\x00\x00\x00\x00\x00\x00\x00\x00\x00\x00\x00\x00\x00\x00\x00\x00\x00\x00\x00\x00\xf0?'
p2751
tp2752
bsg1888
g2418
sg1773
g0
(g1774
g1775
((lp2753
(lp2754
tp2755
tp2756
Rp2757
sg1739
I0
sg2424
g2425
sg2426
I0
sg2427
Nsg2428
I5
sg1787
I01
sg1788
F1.0
sg2429
S'round'
p2758
sg2431
I00
sg60
g163
sg2432
Nsg2433
Nsg2434
I00
sg1849
Nsg1901
Nsg2435
g2436
sg1748
g1071
sg1878
F0.8
sg1746
Nsg1947
g0
(g1948
g2
Ntp2759
Rp2760
(dp2761
g1952
I00
sg1953
Nsg1965
g26
(g27
(I0
tp2762
g29
tp2763
Rp2764
(I1
(I2
I2
tp2765
g36
I01
S'\x00\x00\x00\x00\x00\x00\x00\x00\x00\x00\x00\x00\x00\x00\x00\x00\x00\x00\x00\x00\x00\x00\x00\x00\x00\x00\x00\x00\x00\x00\xf0?'
p2766
tp2767
bsg1972
I00
sg1973
F0.1111111111111111
sg1974
I180
sg1975
I00
sbsbsg1788
Nsg1745
Nsg2446
g0
(g2345
g2
Ntp2768
Rp2769
(dp2770
g1697
g59
sg2351
S'butt'
p2771
sg2353
Nsg1731
I01
sg2356
Nsg2426
I0
sg165
Nsg166
Nsg1735
Nsg1725
Nsg1741
I00
sg1742
(dp2772
sg1744
I00
sg1902
Nsg2376
F0.6
sg2379
Nsg2406
g2407
sg2408
g2409
sg1769
Nsg1771
I01
sg2369
(I0
tp2773
sg1739
I0
sg1787
I01
sg2434
I01
sg2431
I01
sg60
g163
sg2433
Nsg2453
I2
sg2042
g2043
sg2428
I5
sg1713
g1716
sg2373
Nsg1724
Nsg1747
Nsg1728
g1729
sg2354
S'round'
p2774
sg1734
Nsg1736
Nsg1740
I00
sg2371
Nsg1746
Nsg2375
Nsg2380
g0
(g2381
g2
Ntp2775
Rp2776
(dp2777
g2380
I2
sg2386
Nsg2387
F1.0
sg60
g0
(g139
g2
Ntp2778
Rp2779
(dp2780
g14
I2
sg84
Nsg83
g26
(g27
(I0
tp2781
g29
tp2782
Rp2783
(I1
(I3
I3
tp2784
g36
I00
S'\x00\x00\x00\x00\x00\x00\xf0?\x00\x00\x00\x00\x00\x00\x00\x00\x00\x00\x00\x00\x00\x00\x00\x00\x00\x00\x00\x00\x00\x00\x00\x00\x00\x00\x00\x00\x00\x00\xf0?\x00\x00\x00\x00\x00\x00\x00\x00\x00\x00\x00\x00\x00\x00\x00\x00\x00\x00\x00\x00\x00\x00\x00\x00\x00\x00\x00\x00\x00\x00\xf0?'
p2785
tp2786
bsg58
g59
sg41
(dp2787
sbsg2392
I00
sg2393
g2394
sg2395
Nsg1899
g2396
sg1886
g2397
sg1947
g2469
sbsg2377
g2378
sg1748
Nsg1745
Nsg1882
I01
sg2411
Nsg1888
g2477
sg1773
g0
(g1774
g1775
((lp2788
(lp2789
tp2790
tp2791
Rp2792
sg2374
I00
sg2424
g2425
sg2349
S'projecting'
p2793
sg2427
Nsg1788
Nsg2429
S'round'
p2794
sg2410
F2.0
sg1711
I01
sg2432
Nsg1849
Nsg1901
Nsg2435
g2485
sg1878
F1.5
sg1947
Nsbsg60
Nsg2486
g2487
sg2488
g2489
sg2490
g2418
sg2491
(g2492
I0
tp2795
sg1849
Nsg2042
g2043
sg2494
g0
(g2345
g2
Ntp2796
Rp2797
(dp2798
g1697
g59
sg2351
S'butt'
p2799
sg2353
Nsg1731
I01
sg2356
Nsg2426
I0
sg165
Nsg166
Nsg1735
Nsg1725
Nsg1741
I00
sg1742
(dp2800
sg1744
I00
sg1902
Nsg2376
F0.6
sg2379
Nsg2406
g2407
sg2408
g2409
sg1769
Nsg1771
I01
sg2369
(I0
tp2801
sg1739
I0
sg1787
I01
sg2434
I01
sg2431
I01
sg60
g163
sg2433
Nsg2453
I2
sg2042
g2043
sg2428
I5
sg1713
g1716
sg2373
Nsg1724
Nsg1747
Nsg1728
g1729
sg2354
S'round'
p2802
sg1734
Nsg1736
Nsg1740
I00
sg2371
Nsg1746
Nsg2375
Nsg2380
g0
(g2381
g2
Ntp2803
Rp2804
(dp2805
g2380
I3
sg2386
Nsg2387
F1.0
sg60
g0
(g139
g2
Ntp2806
Rp2807
(dp2808
g14
I2
sg84
Nsg83
g26
(g27
(I0
tp2809
g29
tp2810
Rp2811
(I1
(I3
I3
tp2812
g36
I00
S'\x00\x00\x00\x00\x00\x00\xf0?\x00\x00\x00\x00\x00\x00\x00\x00\x00\x00\x00\x00\x00\x00\x00\x00\x00\x00\x00\x00\x00\x00\x00\x00\x00\x00\x00\x00\x00\x00\xf0\xbf\x00\x00\x00\x00\x00\x00\x00\x00\x00\x00\x00\x00\x00\x00\x00\x00\x00\x00\x00\x00\x00\x00\x00\x00\x00\x00\x00\x00\x00\x00\xf0?'
p2813
tp2814
bsg58
g59
sg41
(dp2815
sbsg2392
I00
sg2393
g2394
sg2395
Nsg1899
g2396
sg1886
g2397
sg1947
g2469
sbsg2377
g2378
sg1748
Nsg1745
Nsg1882
I01
sg2411
Nsg1888
g2515
sg1773
g0
(g1774
g1775
((lp2816
(lp2817
tp2818
tp2819
Rp2820
sg2374
I00
sg2424
g2425
sg2349
S'projecting'
p2821
sg2427
Nsg1788
Nsg2429
S'round'
p2822
sg2410
F2.0
sg1711
I01
sg2432
Nsg1849
Nsg1901
Nsg2435
g2523
sg1878
F1.5
sg1947
Nsbsg1746
Nsbasg1746
NsS'_minor_tick_kw'
p2823
(dp2824
g2273
I01
sg2274
I01
sg2275
I00
sg2277
I00
ssS'isDefault_minfmt'
p2825
I01
sbsS'_navigate_mode'
p2826
Nsg1746
NsS'transAxes'
p2827
g81
sS'_connected'
p2828
(dp2829
sS'fmt_ydata'
p2830
NsS'dataLim'
p2831
g0
(g21
g2
Ntp2832
Rp2833
(dp2834
g14
I2
sg25
g26
(g27
(I0
tp2835
g29
tp2836
Rp2837
(I1
(I2
tp2838
g36
I00
S'\x00\x00\x00\x00\x00\x004@\x00\x00\x00\x00\x00\x00$@'
p2839
tp2840
bsg41
(dp2841
sg43
g26
(g27
(I0
tp2842
g29
tp2843
Rp2844
(I1
(I2
I2
tp2845
g36
I00
S'\x00\x00\x00\x00\x00\x00\xf0\x7f\x00\x00\x00\x00\x00\x00\xf0\x7f\x00\x00\x00\x00\x00\x00\xf0\xff\x00\x00\x00\x00\x00\x00\xf0\xff'
p2846
tp2847
bsg50
g26
(g27
(I0
tp2848
g29
tp2849
Rp2850
(I1
(I2
I2
tp2851
g36
I00
S'\x00\x00\x00\x00\x00\x004@\x00\x00\x00\x00\x00\x00$@\x00\x00\x00\x00\x00@o@\x00\x00\x00\x00\x00 g@'
p2852
tp2853
bsg57
I01
sg58
g59
sbsS'transData'
p2854
g70
sg1745
NsS'_sharey'
p2855
NsS'_sharex'
p2856
NsS'_ymargin'
p2857
F0.05
sS'_axes_locator'
p2858
Nsg1773
g0
(g1774
g1775
((lp2859
(lp2860
tp2861
tp2862
Rp2863
sS'numCols'
p2864
I1
sg1788
Nsg1770
NsS'yaxis'
p2865
g0
(cmatplotlib.axis
YAxis
p2866
g2
Ntp2867
Rp2868
(dp2869
g1697
g59
sg2168
g0
(g2169
g2
Ntp2870
Rp2871
(dp2872
g2173
g0
(g2174
g2
Ntp2873
Rp2874
(dp2875
g2178
I2
sg2179
I00
sg2180
g2181
sg2182
g26
(g27
(I0
tp2876
g29
tp2877
Rp2878
(I1
(I5
tp2879
g36
I00
S'\x00\x00\x00\x00\x00\x00\xf0?\x00\x00\x00\x00\x00\x00\x00@\x00\x00\x00\x00\x00\x00\x04@\x00\x00\x00\x00\x00\x00\x14@\x00\x00\x00\x00\x00\x00$@'
p2880
tp2881
bsg2189
Nsg2190
g26
(g27
(I0
tp2882
g29
tp2883
Rp2884
(I1
(I10
tp2885
g36
I00
S'\x9a\x99\x99\x99\x99\x99\xb9?\x9a\x99\x99\x99\x99\x99\xc9?\x00\x00\x00\x00\x00\x00\xd0?\x00\x00\x00\x00\x00\x00\xe0?\x00\x00\x00\x00\x00\x00\xf0?\x00\x00\x00\x00\x00\x00\x00@\x00\x00\x00\x00\x00\x00\x04@\x00\x00\x00\x00\x00\x00\x14@\x00\x00\x00\x00\x00\x00$@\x00\x00\x00\x00\x00\x004@'
p2886
tp2887
bsg2197
I00
sg2198
g2868
sbsg2199
g0
(g2200
g2
Ntp2888
Rp2889
(dp2890
g2204
g2205
sg2206
I0
sg2207
I01
sg2208
I00
sg2209
g59
sg2210
I00
sg2211
I4
sg2212
I0
sg2040
I00
sg2213
I01
sg2198
g2868
sbsbsg2214
I01
sg2215
g0
(g2216
g2
Ntp2891
Rp2892
sg1713
g1716
sg1711
I01
sg2219
I00
sg1724
Nsg1747
Nsg2220
I00
sg1728
g1729
sg1731
I01
sg1734
Nsg2221
g0
(g2006
g2
Ntp2893
Rp2894
(dp2895
g1697
g59
sg1711
I01
sg1713
g1716
sg1724
Nsg2010
g0
(g2011
g2
Ntp2896
Rp2897
(dp2898
g2015
(lp2899
Vsans-serif
p2900
asg2018
Nsg2019
g2020
sg2021
g2020
sg2022
F10.0
sg2023
g2020
sg2024
g2020
sbsg1747
Nsg1728
g1729
sg2025
Nsg1731
I01
sg1734
Nsg165
F0.5
sg166
I0
sg1735
Nsg1736
Nsg1725
Nsg1740
I00
sg1741
I00
sg1742
(dp2901
sg2027
Nsg1744
I00
sg1902
Nsg1748
Nsg1901
Nsg2028
Nsg1745
Nsg1769
Nsg1771
I01
sg2029
Vbaseline
p2902
sg2031
g2232
sg2032
Nsg1773
g0
(g1774
g1775
((lp2903
(lp2904
tp2905
tp2906
Rp2907
sg1739
I0
sg2038
Nsg1787
I01
sg1788
Nsg2039
F1.2
sg60
g582
sg2040
I00
sg2041
I00
sg1849
Nsg2042
g2043
sg2044
Vleft
p2908
sg1746
Nsbsg1735
Nsg1736
Nsg1725
Nsg2239
g0
(g2006
g2
Ntp2909
Rp2910
(dp2911
g1697
g59
sg1711
I01
sg1713
g1716
sg1724
Nsg2010
g0
(g2011
g2
Ntp2912
Rp2913
(dp2914
g2015
(lp2915
Vsans-serif
p2916
asg2018
Nsg2019
g2020
sg2021
g2020
sg2022
F10.0
sg2023
g2020
sg2024
g2020
sbsg1747
Nsg1728
g1729
sg2025
Nsg1731
I01
sg1734
Nsg165
F0.5
sg166
I0
sg1735
Nsg1736
Nsg1725
Nsg1740
I00
sg1741
I00
sg1742
(dp2917
sg2027
Nsg1744
I00
sg1902
Nsg1748
Nsg1901
Nsg2028
Vanchor
p2918
sg1745
Nsg1769
Nsg1771
I01
sg2029
Vbottom
p2919
sg2031
g59
sg2032
Nsg1773
g0
(g1774
g1775
((lp2920
(lp2921
tp2922
tp2923
Rp2924
sg1739
I0
sg2038
Vvertical
p2925
sg1787
I01
sg1788
Nsg2039
F1.2
sg60
g1097
sg2040
I00
sg2041
I00
sg1849
Nsg2042
g2043
sg2044
Vcenter
p2926
sg1746
Nsbsg1740
I00
sg2256
I01
sg1741
I00
sg1742
(dp2927
sg2258
Nsg1744
I00
sg2259
g0
(g2169
g2
Ntp2928
Rp2929
(dp2930
g2173
g0
(g2263
g2
Ntp2931
Rp2932
(dp2933
g2198
g2868
sbsg2199
g0
(g2267
g2
Ntp2934
Rp2935
(dp2936
g2198
g2868
sbsbsg1902
g7
sg2271
(dp2937
g2273
I01
sg2274
I01
sg2275
I00
sg2276
I00
sg2277
I00
ssg2278
I01
sg1748
g1219
sg1745
Nsg2279
I00
sg2280
F4.0
sg2281
(lp2938
g0
(cmatplotlib.axis
YTick
p2939
g2
Ntp2940
Rp2941
(dp2942
g1697
g59
sg1848
F0.8
sg1713
g1716
sg2287
I01
sg1711
I01
sg1787
I00
sg1724
Nsg1739
I0
sg1747
Nsg2288
F7.0
sg2289
g2043
sg2276
I00
sg2022
F3.5
sg1728
g1729
sg2290
g2291
sg2239
g0
(g2006
g2
Ntp2943
Rp2944
(dp2945
g1697
g59
sg1711
I01
sg1713
g1716
sg1724
Nsg2010
g0
(g2011
g2
Ntp2946
Rp2947
(dp2948
g2015
(lp2949
Vsans-serif
p2950
asg2018
Nsg2019
g2020
sg2021
g2020
sg2022
F10.0
sg2023
g2020
sg2024
g2020
sbsg1747
Nsg1728
g1729
sg2025
Nsg1731
I01
sg1734
Nsg165
I0
sg166
I0
sg1735
Nsg1736
Nsg1725
Nsg1740
I00
sg1741
I00
sg1742
(dp2951
sg2027
Nsg1744
I00
sg1902
Nsg1748
Nsg1901
Nsg2028
Nsg1745
Nsg1769
Nsg1771
I01
sg2029
S'center_baseline'
p2952
sg2031
g2232
sg2032
Nsg1773
g0
(g1774
g1775
((lp2953
(lp2954
tp2955
tp2956
Rp2957
sg1739
I0
sg2038
Nsg1787
I01
sg1788
Nsg2039
F1.2
sg60
g237
sg2040
I00
sg2041
I00
sg1849
Nsg2042
g2043
sg2044
Vright
p2958
sg1746
Nsbsg1731
I01
sg1734
Nsg2307
I00
sg1735
Nsg1736
Nsg2308
g2309
sg1725
Nsg2310
I00
sg1740
I00
sg2311
(dp2959
sg1741
I00
sg1742
(dp2960
sg2314
(I0
I1
tp2961
sg1744
I00
sg2316
F2.01
sg1902
g7
sg2317
I01
sg1748
g485
sg1901
Nsg2318
g2944
sg2319
g0
(g2006
g2
Ntp2962
Rp2963
(dp2964
g1697
g59
sg1711
I01
sg1713
g1716
sg1724
Nsg2010
g0
(g2011
g2
Ntp2965
Rp2966
(dp2967
g2015
(lp2968
Vsans-serif
p2969
asg2018
Nsg2019
g2020
sg2021
g2020
sg2022
F10.0
sg2023
g2020
sg2024
g2020
sbsg1747
Nsg1728
g1729
sg2025
Nsg1731
I01
sg1734
Nsg165
I0
sg166
I1
sg1735
Nsg1736
Nsg1725
Nsg1740
I00
sg1741
I00
sg1742
(dp2970
sg2027
Nsg1744
I00
sg1902
Nsg1748
Nsg1901
Nsg2028
Nsg1745
Nsg1769
Nsg1771
I01
sg2029
g2952
sg2031
g2232
sg2032
Nsg1773
g0
(g1774
g1775
((lp2971
(lp2972
tp2973
tp2974
Rp2975
sg1739
I0
sg2038
Nsg1787
I01
sg1788
Nsg2039
F1.2
sg60
g255
sg2040
I00
sg2041
I00
sg1849
Nsg2042
g2043
sg2044
Vleft
p2976
sg1746
Nsbsg1769
Nsg2335
I0
sg1771
I01
sg1773
g0
(g1774
g1775
((lp2977
(lp2978
tp2979
tp2980
Rp2981
sg2341
F3.5
sg2342
F0.8
sg2343
F1.0
sg2344
g0
(g2345
g2
Ntp2982
Rp2983
(dp2984
g1697
g59
sg1711
I01
sg2349
S'projecting'
p2985
sg1713
g1716
sg2351
S'butt'
p2986
sg2353
Nsg1724
Nsg1747
Nsg1728
g1729
sg2354
S'round'
p2987
sg1731
I01
sg2356
Nsg1734
Nsg165
g26
(g27
(I0
tp2988
g29
tp2989
Rp2990
(I1
(I2
tp2991
g36
I00
S'\x00\x00\x00\x00\x00\x00\x00\x00\x00\x00\x00\x00\x00\x00\x00\x00'
p2992
tp2993
bsg166
g26
(g27
(I0
tp2994
g29
tp2995
Rp2996
(I1
(I2
tp2997
g36
I00
S'\x00\x00\x00\x00\x00\x00\x00\x00\x00\x00\x00\x00\x00\x00\xf0?'
p2998
tp2999
bsg1735
Nsg1736
Nsg1725
Nsg2369
(I0
I1
tp3000
sg1740
I00
sg2371
Nsg1741
I00
sg1742
(dp3001
sg2373
Nsg1744
I00
sg2374
I00
sg1902
Nsg2375
Nsg2376
F1.0
sg2377
g2378
sg2379
Nsg2042
g2309
sg2380
g0
(g2381
g2
Ntp3002
Rp3003
(dp3004
g2380
g2385
sg2386
Nsg2387
Nsg60
g0
(g584
g2
Ntp3005
Rp3006
(dp3007
g14
I1
sg84
Nsg58
g59
sg41
(dp3008
sbsg2392
I00
sg2393
g2394
sg2395
Nsg1899
g2396
sg1886
g2397
sg1947
g2399
sbsg1745
Nsg2406
g2407
sg1882
I01
sg2408
g2409
sg1769
Nsg2410
F0.0
sg1771
I01
sg2411
g26
(g27
(I0
tp3009
g29
tp3010
Rp3011
(I1
(I2
I2
tp3012
g36
I00
S'\x00\x00\x00\x00\x00\x00\x00\x00\x00\x00\x00\x00\x00\x00\x00\x00\x00\x00\x00\x00\x00\x00\xf0?\x00\x00\x00\x00\x00\x00\x00\x00'
p3013
tp3014
bsg1888
g2418
sg1773
g0
(g1774
g1775
((lp3015
(lp3016
tp3017
tp3018
Rp3019
sg1739
I0
sg2424
g2425
sg2426
I0
sg2427
Nsg2428
I5
sg1787
I01
sg1788
F1.0
sg2429
S'round'
p3020
sg2431
I00
sg60
g224
sg2432
Nsg2433
Nsg2434
I00
sg1849
Nsg1901
Nsg2435
(I0
I0
tp3021
sg1748
g635
sg1878
F0.8
sg1746
Nsg1947
g0
(g1948
g2
Ntp3022
Rp3023
(dp3024
g1952
I00
sg1953
Nsg1965
g26
(g27
(I0
tp3025
g29
tp3026
Rp3027
(I1
(I2
I2
tp3028
g36
I01
S'\x00\x00\x00\x00\x00\x00\x00\x00\x00\x00\x00\x00\x00\x00\xf0?\x00\x00\x00\x00\x00\x00\x00\x00\x00\x00\x00\x00\x00\x00\x00\x00'
p3029
tp3030
bsg1972
I00
sg1973
F0.1111111111111111
sg1974
I180
sg1975
I00
sbsbsg1788
Nsg1745
Nsg2446
g0
(g2345
g2
Ntp3031
Rp3032
(dp3033
g1697
g59
sg2351
S'butt'
p3034
sg2353
Nsg1731
I01
sg2356
Nsg2426
I0
sg165
Nsg166
Nsg1735
Nsg1725
Nsg1741
I00
sg1742
(dp3035
sg1744
I00
sg1902
Nsg2376
F0.8
sg2379
Nsg2406
g2407
sg2408
g2409
sg1769
Nsg1771
I01
sg2369
(I1
tp3036
sg1739
I0
sg1787
I01
sg2434
I01
sg2431
I01
sg60
g224
sg2433
Nsg2453
F2.01
sg2042
g2043
sg2428
I5
sg1713
g1716
sg2373
Nsg1724
Nsg1747
Nsg1728
g1729
sg2354
S'round'
p3037
sg1734
Nsg1736
Nsg1740
I00
sg2371
Nsg1746
Nsg2375
Nsg2380
g0
(g2381
g2
Ntp3038
Rp3039
(dp3040
g2380
I1
sg2386
Nsg2387
F1.0
sg60
g0
(g139
g2
Ntp3041
Rp3042
(dp3043
g14
I2
sg84
Nsg83
g26
(g27
(I0
tp3044
g29
tp3045
Rp3046
(I1
(I3
I3
tp3047
g36
I00
S'\x00\x00\x00\x00\x00\x00\xf0?\x00\x00\x00\x00\x00\x00\x00\x00\x00\x00\x00\x00\x00\x00\x00\x00\x00\x00\x00\x00\x00\x00\x00\x00\x00\x00\x00\x00\x00\x00\xf0?\x00\x00\x00\x00\x00\x00\x00\x00\x00\x00\x00\x00\x00\x00\x00\x00\x00\x00\x00\x00\x00\x00\x00\x00\x00\x00\x00\x00\x00\x00\xf0?'
p3048
tp3049
bsg58
g59
sg41
(dp3050
sbsg2392
I00
sg2393
g2394
sg2395
Nsg1899
g2396
sg1886
g2397
sg1947
g0
(g1948
g2
Ntp3051
Rp3052
(dp3053
g1952
I00
sg1953
Nsg1965
g26
(g27
(I0
tp3054
g29
tp3055
Rp3056
(I1
(I2
I2
tp3057
g36
I00
S'\x00\x00\x00\x00\x00\x00\x00\x00\x00\x00\x00\x00\x00\x00\x00\x00\x00\x00\x00\x00\x00\x00\xf0?\x00\x00\x00\x00\x00\x00\x00\x00'
p3058
tp3059
bsg1972
I00
sg1973
F0.1111111111111111
sg1974
I1
sg1975
I00
sbsbsg2377
g2378
sg1748
Nsg1745
Nsg1882
I01
sg2411
Nsg1888
VNone
p3060
sg1773
g0
(g1774
g1775
((lp3061
(lp3062
tp3063
tp3064
Rp3065
sg2374
I00
sg2424
g2425
sg2349
S'projecting'
p3066
sg2427
Nsg1788
Nsg2429
S'round'
p3067
sg2410
F3.5
sg1711
I01
sg2432
Nsg1849
Nsg1901
Nsg2435
(I0
tp3068
sg1878
F1.5
sg1947
Nsbsg60
Nsg2486
S'medium'
p3069
sg2488
Vytick
p3070
sg2490
g2418
sg2491
(g2492
I0
tp3071
sg1849
Nsg2042
g2043
sg2494
g0
(g2345
g2
Ntp3072
Rp3073
(dp3074
g1697
g59
sg2351
S'butt'
p3075
sg2353
Nsg1731
I01
sg2356
Nsg2426
I0
sg165
Nsg166
Nsg1735
Nsg1725
Nsg1741
I00
sg1742
(dp3076
sg1744
I00
sg1902
Nsg2376
F0.8
sg2379
Nsg2406
g2407
sg2408
g2409
sg1769
Nsg1771
I01
sg2369
(I0
tp3077
sg1739
I0
sg1787
I01
sg2434
I01
sg2431
I01
sg60
g224
sg2433
Nsg2453
F2.01
sg2042
g2043
sg2428
I5
sg1713
g1716
sg2373
Nsg1724
Nsg1747
Nsg1728
g1729
sg2354
S'round'
p3078
sg1734
Nsg1736
Nsg1740
I00
sg2371
Nsg1746
Nsg2375
Nsg2380
g0
(g2381
g2
Ntp3079
Rp3080
(dp3081
g2380
I0
sg2386
Nsg2387
F1.0
sg60
g0
(g139
g2
Ntp3082
Rp3083
(dp3084
g14
I2
sg84
Nsg83
g26
(g27
(I0
tp3085
g29
tp3086
Rp3087
(I1
(I3
I3
tp3088
g36
I00
S'\x00\x00\x00\x00\x00\x00\xf0\xbf\x00\x00\x00\x00\x00\x00\x00\x00\x00\x00\x00\x00\x00\x00\x00\x00\x00\x00\x00\x00\x00\x00\x00\x00\x00\x00\x00\x00\x00\x00\xf0?\x00\x00\x00\x00\x00\x00\x00\x00\x00\x00\x00\x00\x00\x00\x00\x00\x00\x00\x00\x00\x00\x00\x00\x00\x00\x00\x00\x00\x00\x00\xf0?'
p3089
tp3090
bsg58
g59
sg41
(dp3091
sbsg2392
I00
sg2393
g2394
sg2395
Nsg1899
g2396
sg1886
g2397
sg1947
g3052
sbsg2377
g2378
sg1748
Nsg1745
Nsg1882
I01
sg2411
Nsg1888
VNone
p3092
sg1773
g0
(g1774
g1775
((lp3093
(lp3094
tp3095
tp3096
Rp3097
sg2374
I00
sg2424
g2425
sg2349
S'projecting'
p3098
sg2427
Nsg1788
Nsg2429
S'round'
p3099
sg2410
F3.5
sg1711
I01
sg2432
Nsg1849
Nsg1901
Nsg2435
(I0
tp3100
sg1878
F1.5
sg1947
Nsbsg1746
Nsbag0
(g2939
g2
Ntp3101
Rp3102
(dp3103
g1697
g59
sg1848
F0.8
sg1713
g1716
sg2287
I01
sg1711
I01
sg1787
I00
sg1724
Nsg1739
I0
sg1747
Nsg2288
F7.0
sg2289
g2043
sg2276
I00
sg2022
F3.5
sg1728
g1729
sg2290
g2291
sg2239
g0
(g2006
g2
Ntp3104
Rp3105
(dp3106
g1697
g59
sg1711
I01
sg1713
g1716
sg1724
Nsg2010
g0
(g2011
g2
Ntp3107
Rp3108
(dp3109
g2015
(lp3110
Vsans-serif
p3111
asg2018
Nsg2019
g2020
sg2021
g2020
sg2022
F10.0
sg2023
g2020
sg2024
g2020
sbsg1747
Nsg1728
g1729
sg2025
Nsg1731
I01
sg1734
Nsg165
I0
sg166
I0
sg1735
Nsg1736
Nsg1725
Nsg1740
I00
sg1741
I00
sg1742
(dp3112
sg2027
Nsg1744
I00
sg1902
Nsg1748
Nsg1901
Nsg2028
Nsg1745
Nsg1769
Nsg1771
I01
sg2029
g2952
sg2031
g2232
sg2032
Nsg1773
g0
(g1774
g1775
((lp3113
(lp3114
tp3115
tp3116
Rp3117
sg1739
I0
sg2038
Nsg1787
I01
sg1788
Nsg2039
F1.2
sg60
g221
sg2040
I00
sg2041
I00
sg1849
Nsg2042
g2043
sg2044
g2958
sg1746
Nsbsg1731
I01
sg1734
Nsg2307
I00
sg1735
Nsg1736
Nsg2308
g2309
sg1725
Nsg2310
I00
sg1740
I00
sg2311
(dp3118
sg1741
I00
sg1742
(dp3119
sg2314
(I0
I1
tp3120
sg1744
I00
sg2316
F2.01
sg1902
g7
sg2317
I01
sg1748
g713
sg1901
Nsg2318
g3105
sg2319
g0
(g2006
g2
Ntp3121
Rp3122
(dp3123
g1697
g59
sg1711
I01
sg1713
g1716
sg1724
Nsg2010
g0
(g2011
g2
Ntp3124
Rp3125
(dp3126
g2015
(lp3127
Vsans-serif
p3128
asg2018
Nsg2019
g2020
sg2021
g2020
sg2022
F10.0
sg2023
g2020
sg2024
g2020
sbsg1747
Nsg1728
g1729
sg2025
Nsg1731
I01
sg1734
Nsg165
I0
sg166
I1
sg1735
Nsg1736
Nsg1725
Nsg1740
I00
sg1741
I00
sg1742
(dp3129
sg2027
Nsg1744
I00
sg1902
Nsg1748
Nsg1901
Nsg2028
Nsg1745
Nsg1769
Nsg1771
I01
sg2029
g2952
sg2031
g2232
sg2032
Nsg1773
g0
(g1774
g1775
((lp3130
(lp3131
tp3132
tp3133
Rp3134
sg1739
I0
sg2038
Nsg1787
I01
sg1788
Nsg2039
F1.2
sg60
g228
sg2040
I00
sg2041
I00
sg1849
Nsg2042
g2043
sg2044
g2976
sg1746
Nsbsg1769
Nsg2335
I0
sg1771
I01
sg1773
g0
(g1774
g1775
((lp3135
(lp3136
tp3137
tp3138
Rp3139
sg2341
F3.5
sg2342
F0.8
sg2343
F1.0
sg2344
g0
(g2345
g2
Ntp3140
Rp3141
(dp3142
g1697
g59
sg1711
I01
sg2349
S'projecting'
p3143
sg1713
g1716
sg2351
S'butt'
p3144
sg2353
Nsg1724
Nsg1747
Nsg1728
g1729
sg2354
S'round'
p3145
sg1731
I01
sg2356
Nsg1734
Nsg165
g26
(g27
(I0
tp3146
g29
tp3147
Rp3148
(I1
(I2
tp3149
g36
I00
S'\x00\x00\x00\x00\x00\x00\x00\x00\x00\x00\x00\x00\x00\x00\x00\x00'
p3150
tp3151
bsg166
g26
(g27
(I0
tp3152
g29
tp3153
Rp3154
(I1
(I2
tp3155
g36
I00
S'\x00\x00\x00\x00\x00\x00\x00\x00\x00\x00\x00\x00\x00\x00\xf0?'
p3156
tp3157
bsg1735
Nsg1736
Nsg1725
Nsg2369
g3000
sg1740
I00
sg2371
Nsg1741
I00
sg1742
(dp3158
sg2373
Nsg1744
I00
sg2374
I00
sg1902
Nsg2375
Nsg2376
F1.0
sg2377
g2378
sg2379
Nsg2042
g2309
sg2380
g0
(g2381
g2
Ntp3159
Rp3160
(dp3161
g2380
g2385
sg2386
Nsg2387
Nsg60
g0
(g584
g2
Ntp3162
Rp3163
(dp3164
g14
I1
sg84
Nsg58
g59
sg41
(dp3165
sbsg2392
I00
sg2393
g2394
sg2395
Nsg1899
g2396
sg1886
g2397
sg1947
g2399
sbsg1745
Nsg2406
g2407
sg1882
I01
sg2408
g2409
sg1769
Nsg2410
F0.0
sg1771
I01
sg2411
g26
(g27
(I0
tp3166
g29
tp3167
Rp3168
(I1
(I2
I2
tp3169
g36
I00
S'\x00\x00\x00\x00\x00\x00\x00\x00\x00\x00\x00\x00\x00\x00\x00\x00\x00\x00\x00\x00\x00\x00\xf0?\x00\x00\x00\x00\x00\x00\x00\x00'
p3170
tp3171
bsg1888
g2418
sg1773
g0
(g1774
g1775
((lp3172
(lp3173
tp3174
tp3175
Rp3176
sg1739
I0
sg2424
g2425
sg2426
I0
sg2427
Nsg2428
I5
sg1787
I01
sg1788
F1.0
sg2429
S'round'
p3177
sg2431
I00
sg60
g224
sg2432
Nsg2433
Nsg2434
I00
sg1849
Nsg1901
Nsg2435
g3021
sg1748
g931
sg1878
F0.8
sg1746
Nsg1947
g0
(g1948
g2
Ntp3178
Rp3179
(dp3180
g1952
I00
sg1953
Nsg1965
g26
(g27
(I0
tp3181
g29
tp3182
Rp3183
(I1
(I2
I2
tp3184
g36
I01
S'\x00\x00\x00\x00\x00\x00\x00\x00\x00\x00\x00\x00\x00\x00\xf0?\x00\x00\x00\x00\x00\x00\x00\x00\x00\x00\x00\x00\x00\x00\x00\x00'
p3185
tp3186
bsg1972
I00
sg1973
F0.1111111111111111
sg1974
I180
sg1975
I00
sbsbsg1788
Nsg1745
Nsg2446
g0
(g2345
g2
Ntp3187
Rp3188
(dp3189
g1697
g59
sg2351
S'butt'
p3190
sg2353
Nsg1731
I01
sg2356
Nsg2426
I0
sg165
Nsg166
Nsg1735
Nsg1725
Nsg1741
I00
sg1742
(dp3191
sg1744
I00
sg1902
Nsg2376
F0.8
sg2379
Nsg2406
g2407
sg2408
g2409
sg1769
Nsg1771
I01
sg2369
g3036
sg1739
I0
sg1787
I01
sg2434
I01
sg2431
I01
sg60
g224
sg2433
Nsg2453
F2.01
sg2042
g2043
sg2428
I5
sg1713
g1716
sg2373
Nsg1724
Nsg1747
Nsg1728
g1729
sg2354
S'round'
p3192
sg1734
Nsg1736
Nsg1740
I00
sg2371
Nsg1746
Nsg2375
Nsg2380
g0
(g2381
g2
Ntp3193
Rp3194
(dp3195
g2380
I1
sg2386
Nsg2387
F1.0
sg60
g0
(g139
g2
Ntp3196
Rp3197
(dp3198
g14
I2
sg84
Nsg83
g26
(g27
(I0
tp3199
g29
tp3200
Rp3201
(I1
(I3
I3
tp3202
g36
I00
S'\x00\x00\x00\x00\x00\x00\xf0?\x00\x00\x00\x00\x00\x00\x00\x00\x00\x00\x00\x00\x00\x00\x00\x00\x00\x00\x00\x00\x00\x00\x00\x00\x00\x00\x00\x00\x00\x00\xf0?\x00\x00\x00\x00\x00\x00\x00\x00\x00\x00\x00\x00\x00\x00\x00\x00\x00\x00\x00\x00\x00\x00\x00\x00\x00\x00\x00\x00\x00\x00\xf0?'
p3203
tp3204
bsg58
g59
sg41
(dp3205
sbsg2392
I00
sg2393
g2394
sg2395
Nsg1899
g2396
sg1886
g2397
sg1947
g3052
sbsg2377
g2378
sg1748
Nsg1745
Nsg1882
I01
sg2411
Nsg1888
g3060
sg1773
g0
(g1774
g1775
((lp3206
(lp3207
tp3208
tp3209
Rp3210
sg2374
I00
sg2424
g2425
sg2349
S'projecting'
p3211
sg2427
Nsg1788
Nsg2429
S'round'
p3212
sg2410
F3.5
sg1711
I01
sg2432
Nsg1849
Nsg1901
Nsg2435
(I0
tp3213
sg1878
F1.5
sg1947
Nsbsg60
Nsg2486
g3069
sg2488
g3070
sg2490
g2418
sg2491
(g2492
I0
tp3214
sg1849
Nsg2042
g2043
sg2494
g0
(g2345
g2
Ntp3215
Rp3216
(dp3217
g1697
g59
sg2351
S'butt'
p3218
sg2353
Nsg1731
I01
sg2356
Nsg2426
I0
sg165
Nsg166
Nsg1735
Nsg1725
Nsg1741
I00
sg1742
(dp3219
sg1744
I00
sg1902
Nsg2376
F0.8
sg2379
Nsg2406
g2407
sg2408
g2409
sg1769
Nsg1771
I01
sg2369
g3077
sg1739
I0
sg1787
I01
sg2434
I01
sg2431
I01
sg60
g224
sg2433
Nsg2453
F2.01
sg2042
g2043
sg2428
I5
sg1713
g1716
sg2373
Nsg1724
Nsg1747
Nsg1728
g1729
sg2354
S'round'
p3220
sg1734
Nsg1736
Nsg1740
I00
sg2371
Nsg1746
Nsg2375
Nsg2380
g0
(g2381
g2
Ntp3221
Rp3222
(dp3223
g2380
I0
sg2386
Nsg2387
F1.0
sg60
g0
(g139
g2
Ntp3224
Rp3225
(dp3226
g14
I2
sg84
Nsg83
g26
(g27
(I0
tp3227
g29
tp3228
Rp3229
(I1
(I3
I3
tp3230
g36
I00
S'\x00\x00\x00\x00\x00\x00\xf0\xbf\x00\x00\x00\x00\x00\x00\x00\x00\x00\x00\x00\x00\x00\x00\x00\x00\x00\x00\x00\x00\x00\x00\x00\x00\x00\x00\x00\x00\x00\x00\xf0?\x00\x00\x00\x00\x00\x00\x00\x00\x00\x00\x00\x00\x00\x00\x00\x00\x00\x00\x00\x00\x00\x00\x00\x00\x00\x00\x00\x00\x00\x00\xf0?'
p3231
tp3232
bsg58
g59
sg41
(dp3233
sbsg2392
I00
sg2393
g2394
sg2395
Nsg1899
g2396
sg1886
g2397
sg1947
g3052
sbsg2377
g2378
sg1748
Nsg1745
Nsg1882
I01
sg2411
Nsg1888
g3092
sg1773
g0
(g1774
g1775
((lp3234
(lp3235
tp3236
tp3237
Rp3238
sg2374
I00
sg2424
g2425
sg2349
S'projecting'
p3239
sg2427
Nsg1788
Nsg2429
S'round'
p3240
sg2410
F3.5
sg1711
I01
sg2432
Nsg1849
Nsg1901
Nsg2435
(I0
tp3241
sg1878
F1.5
sg1947
Nsbsg1746
Nsbasg2665
I01
sg1762
g0
(g1763
g2
Ntp3242
Rp3243
(dp3244
g1767
g1768
sbsg1769
Nsg1771
I01
sg2669
I01
sg1773
g0
(g1774
g1775
((lp3245
(lp3246
tp3247
tp3248
Rp3249
sg1739
I0
sg2675
Nsg1787
I00
sg1788
Nsg2676
g2908
sg60
Nsg2678
Vleft
p3250
sg1849
Nsg1901
Nsg2428
I15
sg2680
(lp3251
g0
(g2939
g2
Ntp3252
Rp3253
(dp3254
g1697
g59
sg1848
F0.6
sg1713
g1716
sg2287
I01
sg1711
I01
sg1787
I00
sg1724
Nsg1739
I0
sg1747
Nsg2288
F5.4
sg2289
g2043
sg2276
I00
sg2022
F2.0
sg1728
g1729
sg2290
g2291
sg2239
g0
(g2006
g2
Ntp3255
Rp3256
(dp3257
g1697
g59
sg1711
I01
sg1713
g1716
sg1724
Nsg2010
g0
(g2011
g2
Ntp3258
Rp3259
(dp3260
g2015
(lp3261
Vsans-serif
p3262
asg2018
Nsg2019
g2020
sg2021
g2020
sg2022
F10.0
sg2023
g2020
sg2024
g2020
sbsg1747
Nsg1728
g1729
sg2025
Nsg1731
I01
sg1734
Nsg165
I0
sg166
I0
sg1735
Nsg1736
Nsg1725
Nsg1740
I00
sg1741
I00
sg1742
(dp3263
sg2027
Nsg1744
I00
sg1902
Nsg1748
Nsg1901
Nsg2028
Nsg1745
Nsg1769
Nsg1771
I01
sg2029
g2952
sg2031
g2232
sg2032
Nsg1773
g0
(g1774
g1775
((lp3264
(lp3265
tp3266
tp3267
Rp3268
sg1739
I0
sg2038
Nsg1787
I01
sg1788
Nsg2039
F1.2
sg60
g264
sg2040
I00
sg2041
I00
sg1849
Nsg2042
g2043
sg2044
g2958
sg1746
Nsbsg1731
I01
sg1734
Nsg2307
I00
sg1735
Nsg1736
Nsg2308
g2309
sg1725
Nsg2310
I00
sg1740
I00
sg2311
(dp3269
sg1741
I00
sg1742
(dp3270
sg2314
(I0
I1
tp3271
sg1744
I00
sg2316
I2
sg1902
g7
sg2317
I01
sg1748
g1499
sg1901
Nsg2318
g3256
sg2319
g0
(g2006
g2
Ntp3272
Rp3273
(dp3274
g1697
g59
sg1711
I01
sg1713
g1716
sg1724
Nsg2010
g0
(g2011
g2
Ntp3275
Rp3276
(dp3277
g2015
(lp3278
Vsans-serif
p3279
asg2018
Nsg2019
g2020
sg2021
g2020
sg2022
F10.0
sg2023
g2020
sg2024
g2020
sbsg1747
Nsg1728
g1729
sg2025
Nsg1731
I01
sg1734
Nsg165
I0
sg166
I1
sg1735
Nsg1736
Nsg1725
Nsg1740
I00
sg1741
I00
sg1742
(dp3280
sg2027
Nsg1744
I00
sg1902
Nsg1748
Nsg1901
Nsg2028
Nsg1745
Nsg1769
Nsg1771
I01
sg2029
g2952
sg2031
g2232
sg2032
Nsg1773
g0
(g1774
g1775
((lp3281
(lp3282
tp3283
tp3284
Rp3285
sg1739
I0
sg2038
Nsg1787
I01
sg1788
Nsg2039
F1.2
sg60
g246
sg2040
I00
sg2041
I00
sg1849
Nsg2042
g2043
sg2044
g2976
sg1746
Nsbsg1769
Nsg2335
I0
sg1771
I01
sg1773
g0
(g1774
g1775
((lp3286
(lp3287
tp3288
tp3289
Rp3290
sg2341
F3.4
sg2342
F0.8
sg2343
F1.0
sg2344
g0
(g2345
g2
Ntp3291
Rp3292
(dp3293
g1697
g59
sg1711
I01
sg2349
S'projecting'
p3294
sg1713
g1716
sg2351
S'butt'
p3295
sg2353
Nsg1724
Nsg1747
Nsg1728
g1729
sg2354
S'round'
p3296
sg1731
I01
sg2356
Nsg1734
Nsg165
g26
(g27
(I0
tp3297
g29
tp3298
Rp3299
(I1
(I2
tp3300
g36
I00
S'\x00\x00\x00\x00\x00\x00\x00\x00\x00\x00\x00\x00\x00\x00\x00\x00'
p3301
tp3302
bsg166
g26
(g27
(I0
tp3303
g29
tp3304
Rp3305
(I1
(I2
tp3306
g36
I00
S'\x00\x00\x00\x00\x00\x00\x00\x00\x00\x00\x00\x00\x00\x00\xf0?'
p3307
tp3308
bsg1735
Nsg1736
Nsg1725
Nsg2369
g3000
sg1740
I00
sg2371
Nsg1741
I00
sg1742
(dp3309
sg2373
Nsg1744
I00
sg2374
I00
sg1902
Nsg2375
Nsg2376
F1.0
sg2377
g2378
sg2379
Nsg2042
g2309
sg2380
g0
(g2381
g2
Ntp3310
Rp3311
(dp3312
g2380
g2385
sg2386
Nsg2387
Nsg60
g0
(g584
g2
Ntp3313
Rp3314
(dp3315
g14
I1
sg84
Nsg58
g59
sg41
(dp3316
sbsg2392
I00
sg2393
g2394
sg2395
Nsg1899
g2396
sg1886
g2397
sg1947
g2399
sbsg1745
Nsg2406
g2407
sg1882
I01
sg2408
g2409
sg1769
Nsg2410
F0.0
sg1771
I01
sg2411
g26
(g27
(I0
tp3317
g29
tp3318
Rp3319
(I1
(I2
I2
tp3320
g36
I00
S'\x00\x00\x00\x00\x00\x00\x00\x00\x00\x00\x00\x00\x00\x00\x00\x00\x00\x00\x00\x00\x00\x00\xf0?\x00\x00\x00\x00\x00\x00\x00\x00'
p3321
tp3322
bsg1888
g2418
sg1773
g0
(g1774
g1775
((lp3323
(lp3324
tp3325
tp3326
Rp3327
sg1739
I0
sg2424
g2425
sg2426
I0
sg2427
Nsg2428
I5
sg1787
I01
sg1788
F1.0
sg2429
S'round'
p3328
sg2431
I00
sg60
g224
sg2432
Nsg2433
Nsg2434
I00
sg1849
Nsg1901
Nsg2435
g3021
sg1748
g1289
sg1878
F0.8
sg1746
Nsg1947
g0
(g1948
g2
Ntp3329
Rp3330
(dp3331
g1952
I00
sg1953
Nsg1965
g26
(g27
(I0
tp3332
g29
tp3333
Rp3334
(I1
(I2
I2
tp3335
g36
I01
S'\x00\x00\x00\x00\x00\x00\x00\x00\x00\x00\x00\x00\x00\x00\xf0?\x00\x00\x00\x00\x00\x00\x00\x00\x00\x00\x00\x00\x00\x00\x00\x00'
p3336
tp3337
bsg1972
I00
sg1973
F0.1111111111111111
sg1974
I180
sg1975
I00
sbsbsg1788
Nsg1745
Nsg2446
g0
(g2345
g2
Ntp3338
Rp3339
(dp3340
g1697
g59
sg2351
S'butt'
p3341
sg2353
Nsg1731
I01
sg2356
Nsg2426
I0
sg165
Nsg166
Nsg1735
Nsg1725
Nsg1741
I00
sg1742
(dp3342
sg1744
I00
sg1902
Nsg2376
F0.6
sg2379
Nsg2406
g2407
sg2408
g2409
sg1769
Nsg1771
I01
sg2369
g3036
sg1739
I0
sg1787
I01
sg2434
I01
sg2431
I01
sg60
g224
sg2433
Nsg2453
I2
sg2042
g2043
sg2428
I5
sg1713
g1716
sg2373
Nsg1724
Nsg1747
Nsg1728
g1729
sg2354
S'round'
p3343
sg1734
Nsg1736
Nsg1740
I00
sg2371
Nsg1746
Nsg2375
Nsg2380
g0
(g2381
g2
Ntp3344
Rp3345
(dp3346
g2380
I1
sg2386
Nsg2387
F1.0
sg60
g0
(g139
g2
Ntp3347
Rp3348
(dp3349
g14
I2
sg84
Nsg83
g26
(g27
(I0
tp3350
g29
tp3351
Rp3352
(I1
(I3
I3
tp3353
g36
I00
S'\x00\x00\x00\x00\x00\x00\xf0?\x00\x00\x00\x00\x00\x00\x00\x00\x00\x00\x00\x00\x00\x00\x00\x00\x00\x00\x00\x00\x00\x00\x00\x00\x00\x00\x00\x00\x00\x00\xf0?\x00\x00\x00\x00\x00\x00\x00\x00\x00\x00\x00\x00\x00\x00\x00\x00\x00\x00\x00\x00\x00\x00\x00\x00\x00\x00\x00\x00\x00\x00\xf0?'
p3354
tp3355
bsg58
g59
sg41
(dp3356
sbsg2392
I00
sg2393
g2394
sg2395
Nsg1899
g2396
sg1886
g2397
sg1947
g3052
sbsg2377
g2378
sg1748
Nsg1745
Nsg1882
I01
sg2411
Nsg1888
g3060
sg1773
g0
(g1774
g1775
((lp3357
(lp3358
tp3359
tp3360
Rp3361
sg2374
I00
sg2424
g2425
sg2349
S'projecting'
p3362
sg2427
Nsg1788
Nsg2429
S'round'
p3363
sg2410
F2.0
sg1711
I01
sg2432
Nsg1849
Nsg1901
Nsg2435
(I0
tp3364
sg1878
F1.5
sg1947
Nsbsg60
Nsg2486
g3069
sg2488
g3070
sg2490
g2418
sg2491
(g2492
I0
tp3365
sg1849
Nsg2042
g2043
sg2494
g0
(g2345
g2
Ntp3366
Rp3367
(dp3368
g1697
g59
sg2351
S'butt'
p3369
sg2353
Nsg1731
I01
sg2356
Nsg2426
I0
sg165
Nsg166
Nsg1735
Nsg1725
Nsg1741
I00
sg1742
(dp3370
sg1744
I00
sg1902
Nsg2376
F0.6
sg2379
Nsg2406
g2407
sg2408
g2409
sg1769
Nsg1771
I01
sg2369
g3077
sg1739
I0
sg1787
I01
sg2434
I01
sg2431
I01
sg60
g224
sg2433
Nsg2453
I2
sg2042
g2043
sg2428
I5
sg1713
g1716
sg2373
Nsg1724
Nsg1747
Nsg1728
g1729
sg2354
S'round'
p3371
sg1734
Nsg1736
Nsg1740
I00
sg2371
Nsg1746
Nsg2375
Nsg2380
g0
(g2381
g2
Ntp3372
Rp3373
(dp3374
g2380
I0
sg2386
Nsg2387
F1.0
sg60
g0
(g139
g2
Ntp3375
Rp3376
(dp3377
g14
I2
sg84
Nsg83
g26
(g27
(I0
tp3378
g29
tp3379
Rp3380
(I1
(I3
I3
tp3381
g36
I00
S'\x00\x00\x00\x00\x00\x00\xf0\xbf\x00\x00\x00\x00\x00\x00\x00\x00\x00\x00\x00\x00\x00\x00\x00\x00\x00\x00\x00\x00\x00\x00\x00\x00\x00\x00\x00\x00\x00\x00\xf0?\x00\x00\x00\x00\x00\x00\x00\x00\x00\x00\x00\x00\x00\x00\x00\x00\x00\x00\x00\x00\x00\x00\x00\x00\x00\x00\x00\x00\x00\x00\xf0?'
p3382
tp3383
bsg58
g59
sg41
(dp3384
sbsg2392
I00
sg2393
g2394
sg2395
Nsg1899
g2396
sg1886
g2397
sg1947
g3052
sbsg2377
g2378
sg1748
Nsg1745
Nsg1882
I01
sg2411
Nsg1888
g3092
sg1773
g0
(g1774
g1775
((lp3385
(lp3386
tp3387
tp3388
Rp3389
sg2374
I00
sg2424
g2425
sg2349
S'projecting'
p3390
sg2427
Nsg1788
Nsg2429
S'round'
p3391
sg2410
F2.0
sg1711
I01
sg2432
Nsg1849
Nsg1901
Nsg2435
(I0
tp3392
sg1878
F1.5
sg1947
Nsbsg1746
Nsbasg1746
Nsg2823
(dp3393
g2273
I01
sg2274
I01
sg2275
I00
sg2277
I00
ssg2825
I01
sbsS'_axisbelow'
p3394
S'line'
p3395
sg1711
I01
sg1841
(lp3396
g0
(cmatplotlib.patches
Polygon
p3397
g2
Ntp3398
Rp3399
(dp3400
g1697
V_line0
p3401
sg1711
I01
sg1712
I01
sg1713
g1716
sS'_closed'
p3402
I01
sg1724
Nsg1747
Nsg1728
g1729
sg1849
Nsg1731
I01
sg1851
g0
(g584
g2
Ntp3403
Rp3404
(dp3405
g14
I1
sg84
Nsg58
g59
sg41
(dp3406
sbsg1856
g2107
sg1734
Nsg1735
Nsg1868
Nsg1725
Nsg1740
I00
sg1741
I00
sg1742
(dp3407
sg1744
I00
sg1877
Nsg1771
I01
sg1878
F1.0
sg1748
g783
sg1745
Nsg1880
(g1802
(g36
S'\x00\x00\x00\x00\x00\x00\x00\x00'
p3408
tp3409
Rp3410
g1802
(g36
S'\x00\x00\x00\x00\x00\x00\x00\x00'
p3411
tp3412
Rp3413
g1802
(g36
S'\x00\x00\x00\x00\x00\x00\x00\x00'
p3414
tp3415
Rp3416
I1
tp3417
sg1881
Nsg1882
I01
sg1883
Nsg1884
Nsg1769
Nsg1885
(F0.12156862745098039
F0.4666666666666667
F0.7058823529411765
F1.0
tp3418
sg1886
g1887
sg1888
g1889
sg1773
g0
(g1774
g1775
((lp3419
(lp3420
tp3421
tp3422
Rp3423
sg1739
I0
sg1787
I01
sg1788
Nsg60
g70
sg1897
(NNtp3424
sg1899
g1900
sg1901
Nsg1736
Nsg1902
g7
sg1746
Nsg1947
g0
(g1948
g2
Ntp3425
Rp3426
(dp3427
g1952
I00
sg1953
g26
(g27
(I0
tp3428
g29
tp3429
Rp3430
(I1
(I7
tp3431
g1960
I00
S'\x01\x02\x02\x02\x02\x02O'
p3432
tp3433
bsg1965
g26
(g27
(I0
tp3434
g29
tp3435
Rp3436
(I1
(I7
I2
tp3437
g36
I00
S'\x00\x00\x00\x00\x00\x009@\x00\x00\x00\x00\x00 g@\x00\x00\x00\x00\x00\xc0R@\x00\x00\x00\x00\x00 g@\x00\x00\x00\x00\x00\x00Y@\x00\x00\x00\x00\x00\xc0b@\x00\x00\x00\x00\x00\xc0R@\x00\x00\x00\x00\x00\x00^@\x00\x00\x00\x00\x00\x00I@\x00\x00\x00\x00\x00\xc0b@\x00\x00\x00\x00\x00\x004@\x00\x00\x00\x00\x00\x00^@\x00\x00\x00\x00\x00\x009@\x00\x00\x00\x00\x00 g@'
p3438
tp3439
bsg1972
I00
sg1973
F0.1111111111111111
sg1974
I1
sg1975
I00
sbsbag0
(g3397
g2
Ntp3440
Rp3441
(dp3442
g1697
V_line1
p3443
sg1711
I01
sg1712
I01
sg1713
g1716
sg3402
I01
sg1724
Nsg1747
Nsg1728
g1729
sg1849
Nsg1731
I01
sg1851
g0
(g584
g2
Ntp3444
Rp3445
(dp3446
g14
I1
sg84
Nsg58
g59
sg41
(dp3447
sbsg1856
g2107
sg1734
Nsg1735
Nsg1868
Nsg1725
Nsg1740
I00
sg1741
I00
sg1742
(dp3448
sg1744
I00
sg1877
Nsg1771
I01
sg1878
F1.0
sg1748
g1001
sg1745
Nsg1880
g3417
sg1881
Nsg1882
I01
sg1883
Nsg1884
Nsg1769
Nsg1885
g3418
sg1886
g1887
sg1888
g1889
sg1773
g0
(g1774
g1775
((lp3449
(lp3450
tp3451
tp3452
Rp3453
sg1739
I0
sg1787
I01
sg1788
Nsg60
g70
sg1897
(NNtp3454
sg1899
g1900
sg1901
Nsg1736
Nsg1902
g7
sg1746
Nsg1947
g0
(g1948
g2
Ntp3455
Rp3456
(dp3457
g1952
I00
sg1953
g26
(g27
(I0
tp3458
g29
tp3459
Rp3460
(I1
(I5
tp3461
g1960
I00
S'\x01\x02\x02\x02O'
p3462
tp3463
bsg1965
g26
(g27
(I0
tp3464
g29
tp3465
Rp3466
(I1
(I5
I2
tp3467
g36
I00
S'\x00\x00\x00\x00\x00\x00i@\x00\x00\x00\x00\x00\x009@\x00\x00\x00\x00\x00 l@\x00\x00\x00\x00\x00\x00$@\x00\x00\x00\x00\x00@o@\x00\x00\x00\x00\x00\x009@\x00\x00\x00\x00\x00 l@\x00\x00\x00\x00\x00\x00D@\x00\x00\x00\x00\x00\x00i@\x00\x00\x00\x00\x00\x009@'
p3468
tp3469
bsg1972
I00
sg1973
F0.1111111111111111
sg1974
I1
sg1975
I00
sbsbag0
(g3397
g2
Ntp3470
Rp3471
(dp3472
g1697
V_line2
p3473
sg1711
I01
sg1712
I01
sg1713
g1716
sg3402
I01
sg1724
Nsg1747
Nsg1728
g1729
sg1849
Nsg1731
I01
sg1851
g0
(g584
g2
Ntp3474
Rp3475
(dp3476
g14
I1
sg84
Nsg58
g59
sg41
(dp3477
sbsg1856
g2107
sg1734
Nsg1735
Nsg1868
Nsg1725
Nsg1740
I00
sg1741
I00
sg1742
(dp3478
sg1744
I00
sg1877
Nsg1771
I01
sg1878
F1.0
sg1748
g1359
sg1745
Nsg1880
g3417
sg1881
Nsg1882
I01
sg1883
Nsg1884
Nsg1769
Nsg1885
g3418
sg1886
g1887
sg1888
g1889
sg1773
g0
(g1774
g1775
((lp3479
(lp3480
tp3481
tp3482
Rp3483
sg1739
I0
sg1787
I01
sg1788
Nsg60
g70
sg1897
(NNtp3484
sg1899
g1900
sg1901
Nsg1736
Nsg1902
g7
sg1746
Nsg1947
g0
(g1948
g2
Ntp3485
Rp3486
(dp3487
g1952
I00
sg1953
g26
(g27
(I0
tp3488
g29
tp3489
Rp3490
(I1
(I5
tp3491
g1960
I00
S'\x01\x02\x02\x02O'
p3492
tp3493
bsg1965
g26
(g27
(I0
tp3494
g29
tp3495
Rp3496
(I1
(I5
I2
tp3497
g36
I00
S'\n\xd7\xa3p=\n>@\x00\x00\x00\x00\x00\xe0P@\x00\x00\x00\x00\x00\xc0W@\x00\x00\x00\x00\x00\x00>@\x00\x00\x00\x00\x00@Z@)\\\x8f\xc2\xf5\xa8G@\x85\xebQ\xb8\x1e\x05D@\x14\xaeG\xe1z4U@\n\xd7\xa3p=\n>@\x00\x00\x00\x00\x00\xe0P@'
p3498
tp3499
bsg1972
I00
sg1973
F0.1111111111111111
sg1974
I1
sg1975
I00
sbsbasS'_ycid'
p3500
I1
sS'spines'
p3501
ccollections
OrderedDict
p3502
((lp3503
(lp3504
Vleft
p3505
ag0
(cmatplotlib.spines
Spine
p3506
g2
Ntp3507
Rp3508
(dp3509
g1697
g59
sg2220
I00
sg1712
I01
sg1713
g1716
sS'_bounds'
p3510
Nsg1711
I01
sg1724
Nsg1747
Nsg1728
g1729
sg1849
Nsg1731
I01
sg2198
g2868
sg1851
g0
(g584
g2
Ntp3511
Rp3512
(dp3513
g14
I1
sg84
Nsg58
g59
sg41
(dp3514
sbsg1856
g3417
sg1734
Nsg1735
Nsg1868
g2043
sg1725
Nsg1740
I00
sg1741
I00
sg1742
(dp3515
sg1897
(NNtp3516
sg2134
(Voutward
p3517
F0.0
tp3518
sg1744
I00
sg1877
Nsg1771
I01
sg1878
F0.8
sS'_patch_type'
p3519
Vline
p3520
sg1745
Nsg1880
g3417
sg1881
Nsg1882
I01
sg1883
Nsg1884
Vnone
p3521
sg1769
Nsg1885
g2107
sg1886
g1887
sg1934
g0
(g584
g2
Ntp3522
Rp3523
(dp3524
g14
I1
sg84
Nsg58
g59
sg41
(dp3525
sbsg1888
g1889
sg1773
g0
(g1774
g1775
((lp3526
(lp3527
tp3528
tp3529
Rp3530
sg1739
I0
sS'_spine_transform'
p3531
(Videntity
p3532
g0
(g584
g2
Ntp3533
Rp3534
(dp3535
g14
I1
sg84
Nsg58
g59
sg41
(dp3536
sbtp3537
sg1787
I01
sg1788
NsS'spine_type'
p3538
g3505
sg60
g224
sg1748
Nsg2453
F2.5
sg1899
Vprojecting
p3539
sg1901
Nsg1736
Nsg1902
g7
sg1746
Nsg1947
g0
(g1948
g2
Ntp3540
Rp3541
(dp3542
g1952
I00
sg1953
Nsg1965
g26
(g27
(I0
tp3543
g29
tp3544
Rp3545
(I1
(I2
I2
tp3546
g36
I00
S'\x00\x00\x00\x00\x00\x00\x00\x00\x00\x00\x00\x00\x00\x00*@\x00\x00\x00\x00\x00\x00\x00\x00\x00\x00\x00\x00\x00\x00*@'
p3547
tp3548
bsg1972
I00
sg1973
F0.1111111111111111
sg1974
I1
sg1975
I00
sbsbaa(lp3549
Vright
p3550
ag0
(g3506
g2
Ntp3551
Rp3552
(dp3553
g1697
g59
sg2220
I00
sg1712
I01
sg1713
g1716
sg3510
Nsg1711
I01
sg1724
Nsg1747
Nsg1728
g1729
sg1849
Nsg1731
I01
sg2198
g2868
sg1851
g0
(g584
g2
Ntp3554
Rp3555
(dp3556
g14
I1
sg84
Nsg58
g59
sg41
(dp3557
sbsg1856
g3417
sg1734
Nsg1735
Nsg1868
g2043
sg1725
Nsg1740
I00
sg1741
I00
sg1742
(dp3558
sg1897
(NNtp3559
sg2134
g3518
sg1744
I00
sg1877
Nsg1771
I01
sg1878
F0.8
sg3519
g3520
sg1745
Nsg1880
g3417
sg1881
Nsg1882
I01
sg1883
Nsg1884
g3521
sg1769
Nsg1885
g2107
sg1886
g1887
sg1934
g0
(g584
g2
Ntp3560
Rp3561
(dp3562
g14
I1
sg84
Nsg58
g59
sg41
(dp3563
sbsg1888
g1889
sg1773
g0
(g1774
g1775
((lp3564
(lp3565
tp3566
tp3567
Rp3568
sg1739
I0
sg3531
(g3532
g0
(g584
g2
Ntp3569
Rp3570
(dp3571
g14
I1
sg84
Nsg58
g59
sg41
(dp3572
sbtp3573
sg1787
I01
sg1788
Nsg3538
g3550
sg60
g224
sg1748
Nsg2453
F2.5
sg1899
g3539
sg1901
Nsg1736
Nsg1902
g7
sg1746
Nsg1947
g0
(g1948
g2
Ntp3574
Rp3575
(dp3576
g1952
I00
sg1953
Nsg1965
g26
(g27
(I0
tp3577
g29
tp3578
Rp3579
(I1
(I2
I2
tp3580
g36
I00
S'\x00\x00\x00\x00\x00\x00\xf0?\x00\x00\x00\x00\x00\x00*@\x00\x00\x00\x00\x00\x00\xf0?\x00\x00\x00\x00\x00\x00*@'
p3581
tp3582
bsg1972
I00
sg1973
F0.1111111111111111
sg1974
I1
sg1975
I00
sbsbaa(lp3583
Vbottom
p3584
ag0
(g3506
g2
Ntp3585
Rp3586
(dp3587
g1697
g59
sg2220
I00
sg1712
I01
sg1713
g1716
sg3510
Nsg1711
I01
sg1724
Nsg1747
Nsg1728
g1729
sg1849
Nsg1731
I01
sg2198
g2166
sg1851
g0
(g584
g2
Ntp3588
Rp3589
(dp3590
g14
I1
sg84
Nsg58
g59
sg41
(dp3591
sbsg1856
g3417
sg1734
Nsg1735
Nsg1868
g2043
sg1725
Nsg1740
I00
sg1741
I00
sg1742
(dp3592
sg1897
(NNtp3593
sg2134
g3518
sg1744
I00
sg1877
Nsg1771
I01
sg1878
F0.8
sg3519
g3520
sg1745
Nsg1880
g3417
sg1881
Nsg1882
I01
sg1883
Nsg1884
g3521
sg1769
Nsg1885
g2107
sg1886
g1887
sg1934
g0
(g584
g2
Ntp3594
Rp3595
(dp3596
g14
I1
sg84
Nsg58
g59
sg41
(dp3597
sbsg1888
g1889
sg1773
g0
(g1774
g1775
((lp3598
(lp3599
tp3600
tp3601
Rp3602
sg1739
I0
sg3531
(g3532
g0
(g584
g2
Ntp3603
Rp3604
(dp3605
g14
I1
sg84
Nsg58
g59
sg41
(dp3606
sbtp3607
sg1787
I01
sg1788
Nsg3538
g3584
sg60
g163
sg1748
Nsg2453
F2.5
sg1899
g3539
sg1901
Nsg1736
Nsg1902
g7
sg1746
Nsg1947
g0
(g1948
g2
Ntp3608
Rp3609
(dp3610
g1952
I00
sg1953
Nsg1965
g26
(g27
(I0
tp3611
g29
tp3612
Rp3613
(I1
(I2
I2
tp3614
g36
I00
S'\x00\x00\x00\x00\x00\x00*@\x00\x00\x00\x00\x00\x00\x00\x00\x00\x00\x00\x00\x00\x00*@\x00\x00\x00\x00\x00\x00\x00\x00'
p3615
tp3616
bsg1972
I00
sg1973
F0.1111111111111111
sg1974
I1
sg1975
I00
sbsbaa(lp3617
Vtop
p3618
ag0
(g3506
g2
Ntp3619
Rp3620
(dp3621
g1697
g59
sg2220
I00
sg1712
I01
sg1713
g1716
sg3510
Nsg1711
I01
sg1724
Nsg1747
Nsg1728
g1729
sg1849
Nsg1731
I01
sg2198
g2166
sg1851
g0
(g584
g2
Ntp3622
Rp3623
(dp3624
g14
I1
sg84
Nsg58
g59
sg41
(dp3625
sbsg1856
g3417
sg1734
Nsg1735
Nsg1868
g2043
sg1725
Nsg1740
I00
sg1741
I00
sg1742
(dp3626
sg1897
(NNtp3627
sg2134
g3518
sg1744
I00
sg1877
Nsg1771
I01
sg1878
F0.8
sg3519
g3520
sg1745
Nsg1880
g3417
sg1881
Nsg1882
I01
sg1883
Nsg1884
g3521
sg1769
Nsg1885
g2107
sg1886
g1887
sg1934
g0
(g584
g2
Ntp3628
Rp3629
(dp3630
g14
I1
sg84
Nsg58
g59
sg41
(dp3631
sbsg1888
g1889
sg1773
g0
(g1774
g1775
((lp3632
(lp3633
tp3634
tp3635
Rp3636
sg1739
I0
sg3531
(g3532
g0
(g584
g2
Ntp3637
Rp3638
(dp3639
g14
I1
sg84
Nsg58
g59
sg41
(dp3640
sbtp3641
sg1787
I01
sg1788
Nsg3538
g3618
sg60
g163
sg1748
Nsg2453
F2.5
sg1899
g3539
sg1901
Nsg1736
Nsg1902
g7
sg1746
Nsg1947
g0
(g1948
g2
Ntp3642
Rp3643
(dp3644
g1952
I00
sg1953
Nsg1965
g26
(g27
(I0
tp3645
g29
tp3646
Rp3647
(I1
(I2
I2
tp3648
g36
I00
S'\x00\x00\x00\x00\x00\x00*@\x00\x00\x00\x00\x00\x00\xf0?\x00\x00\x00\x00\x00\x00*@\x00\x00\x00\x00\x00\x00\xf0?'
p3649
tp3650
bsg1972
I00
sg1973
F0.1111111111111111
sg1974
I1
sg1975
I00
sbsbaatp3651
Rp3652
sS'_anchor'
p3653
VC
p3654
sg1849
Nsg1901
Nsb.